; generated by Component: ARM Compiler 5.06 update 6 (build 750) Tool: ArmCC [4d3637]
; commandline ArmCC [--c99 --list --debug -c --asm --interleave -o.\objects\glcd_spi_lpc1700.o --asm_dir=.\Listings\ --list_dir=.\Listings\ --depend=.\objects\glcd_spi_lpc1700.d --cpu=Cortex-M3 --apcs=interwork -O0 --diag_suppress=9931 -I.\RTE\_Target_1 -IC:\Users\ECBME\AppData\Local\Arm\Packs\ARM\CMSIS\5.7.0\CMSIS\Core\Include -IC:\Users\ECBME\AppData\Local\Arm\Packs\Keil\LPC1700_DFP\2.6.0\Device\Include -D__UVISION_VERSION=531 -D_RTE_ -DLPC175x_6x -D_RTE_ --omf_browse=.\objects\glcd_spi_lpc1700.crf GLCD_SPI_LPC1700.c]
                          THUMB

                          AREA ||.text||, CODE, READONLY, ALIGN=2

                  delay PROC
;;;99     
;;;100    static void delay (int cnt) {
000000  0480              LSLS     r0,r0,#18
;;;101      cnt <<= DELAY_2N;
;;;102      while (cnt--);
000002  bf00              NOP      
                  |L1.4|
000004  1e01              SUBS     r1,r0,#0
000006  f1a00001          SUB      r0,r0,#1
00000a  d1fb              BNE      |L1.4|
;;;103    }
00000c  4770              BX       lr
;;;104    
                          ENDP

                  spi_tran_man PROC
;;;111    *******************************************************************************/
;;;112    static unsigned char spi_tran_man (unsigned char byte, unsigned int mode) {
00000e  e92d41f0          PUSH     {r4-r8,lr}
000012  4606              MOV      r6,r0
000014  460d              MOV      r5,r1
;;;113      unsigned char val = 0;
000016  2700              MOVS     r7,#0
;;;114      int i;
;;;115    
;;;116      if (mode == OUT) { DAT_MODE (OUT); }
000018  2d01              CMP      r5,#1
00001a  d106              BNE      |L1.42|
00001c  48fe              LDR      r0,|L1.1048|
00001e  6800              LDR      r0,[r0,#0]
000020  f4407000          ORR      r0,r0,#0x200
000024  49fc              LDR      r1,|L1.1048|
000026  6008              STR      r0,[r1,#0]
000028  e005              B        |L1.54|
                  |L1.42|
;;;117      else             { DAT_MODE (IN);  }
00002a  48fb              LDR      r0,|L1.1048|
00002c  6800              LDR      r0,[r0,#0]
00002e  f4207000          BIC      r0,r0,#0x200
000032  49f9              LDR      r1,|L1.1048|
000034  6008              STR      r0,[r1,#0]
                  |L1.54|
;;;118    
;;;119      for (i = 7; i >= 0; i--) {
000036  2407              MOVS     r4,#7
000038  e022              B        |L1.128|
                  |L1.58|
;;;120        LCD_CLK(0);
00003a  2080              MOVS     r0,#0x80
00003c  49f6              LDR      r1,|L1.1048|
00003e  61c8              STR      r0,[r1,#0x1c]
;;;121        delay(1);
000040  2001              MOVS     r0,#1
000042  f7fffffe          BL       delay
;;;122        if (mode == OUT) {
000046  2d01              CMP      r5,#1
000048  d10c              BNE      |L1.100|
;;;123          LCD_DAT((byte & (1 << i)) != 0);
00004a  2001              MOVS     r0,#1
00004c  40a0              LSLS     r0,r0,r4
00004e  4030              ANDS     r0,r0,r6
000050  b118              CBZ      r0,|L1.90|
000052  0268              LSLS     r0,r5,#9
000054  49f0              LDR      r1,|L1.1048|
000056  6188              STR      r0,[r1,#0x18]
000058  e00b              B        |L1.114|
                  |L1.90|
00005a  f44f7000          MOV      r0,#0x200
00005e  49ee              LDR      r1,|L1.1048|
000060  61c8              STR      r0,[r1,#0x1c]
000062  e006              B        |L1.114|
                  |L1.100|
;;;124        }
;;;125        else {
;;;126          val |= (BUS_VAL() << i);
000064  48ec              LDR      r0,|L1.1048|
000066  6940              LDR      r0,[r0,#0x14]
000068  f3c02040          UBFX     r0,r0,#9,#1
00006c  40a0              LSLS     r0,r0,r4
00006e  4338              ORRS     r0,r0,r7
000070  b2c7              UXTB     r7,r0
                  |L1.114|
;;;127        }
;;;128        LCD_CLK(1);
000072  2080              MOVS     r0,#0x80
000074  49e8              LDR      r1,|L1.1048|
000076  6188              STR      r0,[r1,#0x18]
;;;129        delay(1);
000078  2001              MOVS     r0,#1
00007a  f7fffffe          BL       delay
00007e  1e64              SUBS     r4,r4,#1              ;119
                  |L1.128|
000080  2c00              CMP      r4,#0                 ;119
000082  dada              BGE      |L1.58|
;;;130      }
;;;131      return (val);
000084  4638              MOV      r0,r7
;;;132    }
000086  e8bd81f0          POP      {r4-r8,pc}
;;;133    
                          ENDP

                  wr_cmd PROC
;;;154    
;;;155    static __inline void wr_cmd (unsigned char cmd) {
00008a  b510              PUSH     {r4,lr}
00008c  4604              MOV      r4,r0
;;;156      LCD_CS(0);
00008e  2040              MOVS     r0,#0x40
000090  49e1              LDR      r1,|L1.1048|
000092  61c8              STR      r0,[r1,#0x1c]
;;;157      spi_tran(SPI_START | SPI_WR | SPI_INDEX);   /* Write : RS = 0, RW = 0       */
000094  2070              MOVS     r0,#0x70
000096  f7fffffe          BL       spi_tran
;;;158      spi_tran(0);
00009a  2000              MOVS     r0,#0
00009c  f7fffffe          BL       spi_tran
;;;159      spi_tran(cmd);
0000a0  4620              MOV      r0,r4
0000a2  f7fffffe          BL       spi_tran
;;;160      LCD_CS(1);
0000a6  2040              MOVS     r0,#0x40
0000a8  49db              LDR      r1,|L1.1048|
0000aa  6188              STR      r0,[r1,#0x18]
;;;161    }
0000ac  bd10              POP      {r4,pc}
;;;162    
                          ENDP

                  wr_dat PROC
;;;169    
;;;170    static __inline void wr_dat (unsigned short dat) {
0000ae  b510              PUSH     {r4,lr}
0000b0  4604              MOV      r4,r0
;;;171      LCD_CS(0);
0000b2  2040              MOVS     r0,#0x40
0000b4  49d8              LDR      r1,|L1.1048|
0000b6  61c8              STR      r0,[r1,#0x1c]
;;;172      spi_tran(SPI_START | SPI_WR | SPI_DATA);    /* Write : RS = 1, RW = 0       */
0000b8  2072              MOVS     r0,#0x72
0000ba  f7fffffe          BL       spi_tran
;;;173      spi_tran((dat >>   8));                     /* Write D8..D15                */
0000be  1220              ASRS     r0,r4,#8
0000c0  f7fffffe          BL       spi_tran
;;;174      spi_tran((dat & 0xFF));                     /* Write D0..D7                 */
0000c4  b2e0              UXTB     r0,r4
0000c6  f7fffffe          BL       spi_tran
;;;175      LCD_CS(1);
0000ca  2040              MOVS     r0,#0x40
0000cc  49d2              LDR      r1,|L1.1048|
0000ce  6188              STR      r0,[r1,#0x18]
;;;176    }
0000d0  bd10              POP      {r4,pc}
;;;177    
                          ENDP

                  rd_reg PROC
;;;254    
;;;255    static unsigned short rd_reg (unsigned char reg) {
0000d2  b570              PUSH     {r4-r6,lr}
0000d4  4605              MOV      r5,r0
;;;256    
;;;257      wr_cmd(reg);
0000d6  4628              MOV      r0,r5
0000d8  f7fffffe          BL       wr_cmd
;;;258      return(rd_dat());
0000dc  bf00              NOP      
0000de  2400              MOVS     r4,#0
0000e0  2040              MOVS     r0,#0x40
0000e2  49cd              LDR      r1,|L1.1048|
0000e4  61c8              STR      r0,[r1,#0x1c]
0000e6  2073              MOVS     r0,#0x73
0000e8  f7fffffe          BL       spi_tran
0000ec  2000              MOVS     r0,#0
0000ee  f7fffffe          BL       spi_tran
0000f2  2000              MOVS     r0,#0
0000f4  f7fffffe          BL       spi_tran
0000f8  4604              MOV      r4,r0
0000fa  f64f70ff          MOV      r0,#0xffff
0000fe  ea002404          AND      r4,r0,r4,LSL #8
000102  2000              MOVS     r0,#0
000104  f7fffffe          BL       spi_tran
000108  4304              ORRS     r4,r4,r0
00010a  2040              MOVS     r0,#0x40
00010c  49c2              LDR      r1,|L1.1048|
00010e  6188              STR      r0,[r1,#0x18]
000110  4620              MOV      r0,r4
;;;259    }
000112  bd70              POP      {r4-r6,pc}
;;;260    
                          ENDP

                  rd_id_man PROC
;;;267    
;;;268    static unsigned short rd_id_man (void) {
000114  b510              PUSH     {r4,lr}
;;;269      unsigned short val;
;;;270    
;;;271      /* Set MOSI, MISO and SCK as GPIO pins, with pull-down/pull-up disabled     */
;;;272      LPC_PINCON->PINSEL0  &= ~((3 << 18) | (3 << 16) | (3 << 14));
000116  48c1              LDR      r0,|L1.1052|
000118  6800              LDR      r0,[r0,#0]
00011a  f420207c          BIC      r0,r0,#0xfc000
00011e  49bf              LDR      r1,|L1.1052|
000120  6008              STR      r0,[r1,#0]
;;;273      LPC_PINCON->PINMODE0 |= 0x000AA000;
000122  4608              MOV      r0,r1
000124  6c00              LDR      r0,[r0,#0x40]
000126  f440202a          ORR      r0,r0,#0xaa000
00012a  6408              STR      r0,[r1,#0x40]
;;;274      LPC_GPIO0->FIODIR    |= PIN_CLK;      /* SCK pin is GPIO output             */
00012c  48ba              LDR      r0,|L1.1048|
00012e  6800              LDR      r0,[r0,#0]
000130  f0400080          ORR      r0,r0,#0x80
000134  49b8              LDR      r1,|L1.1048|
000136  6008              STR      r0,[r1,#0]
;;;275      LCD_CS (1);                           /* Set chip select high               */
000138  2040              MOVS     r0,#0x40
00013a  6188              STR      r0,[r1,#0x18]
;;;276      LCD_CLK(1);                           /* Set clock high                     */
00013c  2080              MOVS     r0,#0x80
00013e  6188              STR      r0,[r1,#0x18]
;;;277    
;;;278      LCD_CS(0);
000140  2040              MOVS     r0,#0x40
000142  61c8              STR      r0,[r1,#0x1c]
;;;279      spi_tran_man (SPI_START | SPI_WR | SPI_INDEX, OUT);
000144  2101              MOVS     r1,#1
000146  2070              MOVS     r0,#0x70
000148  f7fffffe          BL       spi_tran_man
;;;280      spi_tran_man (0x00, OUT);
00014c  2101              MOVS     r1,#1
00014e  2000              MOVS     r0,#0
000150  f7fffffe          BL       spi_tran_man
;;;281      LCD_CS(1);
000154  2040              MOVS     r0,#0x40
000156  49b0              LDR      r1,|L1.1048|
000158  6188              STR      r0,[r1,#0x18]
;;;282    
;;;283      LCD_CS(0);
00015a  61c8              STR      r0,[r1,#0x1c]
;;;284      spi_tran_man (SPI_START | SPI_RD | SPI_DATA, OUT);
00015c  2101              MOVS     r1,#1
00015e  2073              MOVS     r0,#0x73
000160  f7fffffe          BL       spi_tran_man
;;;285      val = spi_tran_man(0, IN);
000164  2100              MOVS     r1,#0
000166  4608              MOV      r0,r1
000168  f7fffffe          BL       spi_tran_man
00016c  4604              MOV      r4,r0
;;;286      LCD_CS(1);
00016e  2040              MOVS     r0,#0x40
000170  49a9              LDR      r1,|L1.1048|
000172  6188              STR      r0,[r1,#0x18]
;;;287    
;;;288      /* Connect MOSI, MISO, and SCK to SSP peripheral                            */
;;;289      LPC_GPIO0->FIODIR    &= ~PIN_CLK;
000174  4608              MOV      r0,r1
000176  6800              LDR      r0,[r0,#0]
000178  f0200080          BIC      r0,r0,#0x80
00017c  6008              STR      r0,[r1,#0]
;;;290      LPC_PINCON->PINSEL0  |= (2 << 18) | (2 << 16) | (2 << 14);
00017e  48a7              LDR      r0,|L1.1052|
000180  6800              LDR      r0,[r0,#0]
000182  f4402028          ORR      r0,r0,#0xa8000
000186  49a5              LDR      r1,|L1.1052|
000188  6008              STR      r0,[r1,#0]
;;;291      LPC_PINCON->PINMODE0 &= ~0x000FF000;
00018a  4608              MOV      r0,r1
00018c  6c00              LDR      r0,[r0,#0x40]
00018e  f420207f          BIC      r0,r0,#0xff000
000192  6408              STR      r0,[r1,#0x40]
;;;292    
;;;293      return (val);
000194  4620              MOV      r0,r4
;;;294    }
000196  bd10              POP      {r4,pc}
;;;295    
                          ENDP

                  GLCD_Init PROC
;;;304    
;;;305    void GLCD_Init (void) {
000198  b510              PUSH     {r4,lr}
;;;306      unsigned short driverCode;
;;;307    
;;;308      /* Enable clock for SSP1, clock = CCLK / 2                                  */
;;;309      LPC_SC->PCONP       |= 0x00000400;
00019a  48a1              LDR      r0,|L1.1056|
00019c  6800              LDR      r0,[r0,#0]
00019e  f4406080          ORR      r0,r0,#0x400
0001a2  499f              LDR      r1,|L1.1056|
0001a4  39c4              SUBS     r1,r1,#0xc4
0001a6  f8c100c4          STR      r0,[r1,#0xc4]
;;;310      LPC_SC->PCLKSEL0    |= 0x00200000;
0001aa  4608              MOV      r0,r1
0001ac  f8d001a8          LDR      r0,[r0,#0x1a8]
0001b0  f4401000          ORR      r0,r0,#0x200000
0001b4  f8c101a8          STR      r0,[r1,#0x1a8]
;;;311    
;;;312      /* Configure the LCD Control pins                                           */
;;;313      LPC_PINCON->PINSEL9 &= 0xF0FFFFFF;
0001b8  4898              LDR      r0,|L1.1052|
0001ba  6a40              LDR      r0,[r0,#0x24]
0001bc  f0206070          BIC      r0,r0,#0xf000000
0001c0  4996              LDR      r1,|L1.1052|
0001c2  6248              STR      r0,[r1,#0x24]
;;;314      LPC_GPIO4->FIODIR   |= 0x30000000;
0001c4  4894              LDR      r0,|L1.1048|
0001c6  f8d00080          LDR      r0,[r0,#0x80]
0001ca  f0405040          ORR      r0,r0,#0x30000000
0001ce  4992              LDR      r1,|L1.1048|
0001d0  3180              ADDS     r1,r1,#0x80
0001d2  6008              STR      r0,[r1,#0]
;;;315      LPC_GPIO4->FIOSET    = 0x20000000;
0001d4  0588              LSLS     r0,r1,#22
0001d6  4990              LDR      r1,|L1.1048|
0001d8  f8c10098          STR      r0,[r1,#0x98]
;;;316    
;;;317      /* SSEL1 is GPIO output set to high                                         */
;;;318      LPC_GPIO0->FIODIR   |= 0x00000040;
0001dc  4608              MOV      r0,r1
0001de  6800              LDR      r0,[r0,#0]
0001e0  f0400040          ORR      r0,r0,#0x40
0001e4  6008              STR      r0,[r1,#0]
;;;319      LPC_GPIO0->FIOSET    = 0x00000040;
0001e6  2040              MOVS     r0,#0x40
0001e8  6188              STR      r0,[r1,#0x18]
;;;320      LPC_PINCON->PINSEL0 &= 0xFFF03FFF;
0001ea  488c              LDR      r0,|L1.1052|
0001ec  6800              LDR      r0,[r0,#0]
0001ee  f420207c          BIC      r0,r0,#0xfc000
0001f2  498a              LDR      r1,|L1.1052|
0001f4  6008              STR      r0,[r1,#0]
;;;321      LPC_PINCON->PINSEL0 |= 0x000A8000;
0001f6  4608              MOV      r0,r1
0001f8  6800              LDR      r0,[r0,#0]
0001fa  f4402028          ORR      r0,r0,#0xa8000
0001fe  6008              STR      r0,[r1,#0]
;;;322    
;;;323      /* Enable SPI in Master Mode, CPOL=1, CPHA=1                                */
;;;324      /* Max. 12.5 MBit used for Data Transfer @ 100MHz                           */
;;;325      LPC_SSP1->CR0        = 0x01C7;
000200  f24010c7          MOV      r0,#0x1c7
000204  4987              LDR      r1,|L1.1060|
000206  6008              STR      r0,[r1,#0]
;;;326      LPC_SSP1->CPSR       = 0x02;
000208  2002              MOVS     r0,#2
00020a  6108              STR      r0,[r1,#0x10]
;;;327      LPC_SSP1->CR1        = 0x02;
00020c  6048              STR      r0,[r1,#4]
;;;328      
;;;329      driverCode = rd_id_man ();
00020e  f7fffffe          BL       rd_id_man
000212  4604              MOV      r4,r0
;;;330      if (driverCode == 0) {
000214  b91c              CBNZ     r4,|L1.542|
;;;331        driverCode = rd_reg(0x00);
000216  2000              MOVS     r0,#0
000218  f7fffffe          BL       rd_reg
00021c  4604              MOV      r4,r0
                  |L1.542|
;;;332      }
;;;333    
;;;334      if (driverCode == 0x47) {             /* LCD with HX8347-D LCD Controller   */
00021e  2c47              CMP      r4,#0x47
000220  d17d              BNE      |L1.798|
;;;335        Himax = 1;                          /* Set Himax LCD controller flag      */
000222  2001              MOVS     r0,#1
000224  4980              LDR      r1,|L1.1064|
000226  7008              STRB     r0,[r1,#0]
;;;336        /* Driving ability settings ----------------------------------------------*/
;;;337        wr_reg(0xEA, 0x00);                 /* Power control internal used (1)    */
000228  2100              MOVS     r1,#0
00022a  20ea              MOVS     r0,#0xea
00022c  f7fffffe          BL       wr_reg
;;;338        wr_reg(0xEB, 0x20);                 /* Power control internal used (2)    */
000230  2120              MOVS     r1,#0x20
000232  20eb              MOVS     r0,#0xeb
000234  f7fffffe          BL       wr_reg
;;;339        wr_reg(0xEC, 0x0C);                 /* Source control internal used (1)   */
000238  210c              MOVS     r1,#0xc
00023a  20ec              MOVS     r0,#0xec
00023c  f7fffffe          BL       wr_reg
;;;340        wr_reg(0xED, 0xC7);                 /* Source control internal used (2)   */
000240  21c7              MOVS     r1,#0xc7
000242  20ed              MOVS     r0,#0xed
000244  f7fffffe          BL       wr_reg
;;;341        wr_reg(0xE8, 0x38);                 /* Source output period Normal mode   */
000248  2138              MOVS     r1,#0x38
00024a  20e8              MOVS     r0,#0xe8
00024c  f7fffffe          BL       wr_reg
;;;342        wr_reg(0xE9, 0x10);                 /* Source output period Idle mode     */
000250  2110              MOVS     r1,#0x10
000252  20e9              MOVS     r0,#0xe9
000254  f7fffffe          BL       wr_reg
;;;343        wr_reg(0xF1, 0x01);                 /* RGB 18-bit interface ;0x0110       */
000258  2101              MOVS     r1,#1
00025a  20f1              MOVS     r0,#0xf1
00025c  f7fffffe          BL       wr_reg
;;;344        wr_reg(0xF2, 0x10);
000260  2110              MOVS     r1,#0x10
000262  20f2              MOVS     r0,#0xf2
000264  f7fffffe          BL       wr_reg
;;;345    
;;;346        /* Adjust the Gamma Curve ------------------------------------------------*/
;;;347        wr_reg(0x40, 0x01);
000268  2101              MOVS     r1,#1
00026a  2040              MOVS     r0,#0x40
00026c  f7fffffe          BL       wr_reg
;;;348        wr_reg(0x41, 0x00);
000270  2100              MOVS     r1,#0
000272  2041              MOVS     r0,#0x41
000274  f7fffffe          BL       wr_reg
;;;349        wr_reg(0x42, 0x00);
000278  2100              MOVS     r1,#0
00027a  2042              MOVS     r0,#0x42
00027c  f7fffffe          BL       wr_reg
;;;350        wr_reg(0x43, 0x10);
000280  2110              MOVS     r1,#0x10
000282  2043              MOVS     r0,#0x43
000284  f7fffffe          BL       wr_reg
;;;351        wr_reg(0x44, 0x0E);
000288  210e              MOVS     r1,#0xe
00028a  2044              MOVS     r0,#0x44
00028c  f7fffffe          BL       wr_reg
;;;352        wr_reg(0x45, 0x24);
000290  2124              MOVS     r1,#0x24
000292  2045              MOVS     r0,#0x45
000294  f7fffffe          BL       wr_reg
;;;353        wr_reg(0x46, 0x04);
000298  2104              MOVS     r1,#4
00029a  2046              MOVS     r0,#0x46
00029c  f7fffffe          BL       wr_reg
;;;354        wr_reg(0x47, 0x50);
0002a0  2150              MOVS     r1,#0x50
0002a2  2047              MOVS     r0,#0x47
0002a4  f7fffffe          BL       wr_reg
;;;355        wr_reg(0x48, 0x02);
0002a8  2102              MOVS     r1,#2
0002aa  2048              MOVS     r0,#0x48
0002ac  f7fffffe          BL       wr_reg
;;;356        wr_reg(0x49, 0x13);
0002b0  2113              MOVS     r1,#0x13
0002b2  2049              MOVS     r0,#0x49
0002b4  f7fffffe          BL       wr_reg
;;;357        wr_reg(0x4A, 0x19);
0002b8  2119              MOVS     r1,#0x19
0002ba  204a              MOVS     r0,#0x4a
0002bc  f7fffffe          BL       wr_reg
;;;358        wr_reg(0x4B, 0x19);
0002c0  2119              MOVS     r1,#0x19
0002c2  204b              MOVS     r0,#0x4b
0002c4  f7fffffe          BL       wr_reg
;;;359        wr_reg(0x4C, 0x16);
0002c8  2116              MOVS     r1,#0x16
0002ca  204c              MOVS     r0,#0x4c
0002cc  f7fffffe          BL       wr_reg
;;;360    
;;;361        wr_reg(0x50, 0x1B);
0002d0  211b              MOVS     r1,#0x1b
0002d2  2050              MOVS     r0,#0x50
0002d4  f7fffffe          BL       wr_reg
;;;362        wr_reg(0x51, 0x31);
0002d8  2131              MOVS     r1,#0x31
0002da  2051              MOVS     r0,#0x51
0002dc  f7fffffe          BL       wr_reg
;;;363        wr_reg(0x52, 0x2F);
0002e0  212f              MOVS     r1,#0x2f
0002e2  2052              MOVS     r0,#0x52
0002e4  f7fffffe          BL       wr_reg
;;;364        wr_reg(0x53, 0x3F);
0002e8  213f              MOVS     r1,#0x3f
0002ea  2053              MOVS     r0,#0x53
0002ec  f7fffffe          BL       wr_reg
;;;365        wr_reg(0x54, 0x3F);
0002f0  213f              MOVS     r1,#0x3f
0002f2  2054              MOVS     r0,#0x54
0002f4  f7fffffe          BL       wr_reg
;;;366        wr_reg(0x55, 0x3E);
0002f8  213e              MOVS     r1,#0x3e
0002fa  2055              MOVS     r0,#0x55
0002fc  f7fffffe          BL       wr_reg
;;;367        wr_reg(0x56, 0x2F);
000300  212f              MOVS     r1,#0x2f
000302  2056              MOVS     r0,#0x56
000304  f7fffffe          BL       wr_reg
;;;368        wr_reg(0x57, 0x7B);
000308  217b              MOVS     r1,#0x7b
00030a  2057              MOVS     r0,#0x57
00030c  f7fffffe          BL       wr_reg
;;;369        wr_reg(0x58, 0x09);
000310  2109              MOVS     r1,#9
000312  2058              MOVS     r0,#0x58
000314  f7fffffe          BL       wr_reg
;;;370        wr_reg(0x59, 0x06);
000318  2106              MOVS     r1,#6
00031a  2059              MOVS     r0,#0x59
00031c  e000              B        |L1.800|
                  |L1.798|
00031e  e094              B        |L1.1098|
                  |L1.800|
000320  f7fffffe          BL       wr_reg
;;;371        wr_reg(0x5A, 0x06);
000324  2106              MOVS     r1,#6
000326  205a              MOVS     r0,#0x5a
000328  f7fffffe          BL       wr_reg
;;;372        wr_reg(0x5B, 0x0C);
00032c  210c              MOVS     r1,#0xc
00032e  205b              MOVS     r0,#0x5b
000330  f7fffffe          BL       wr_reg
;;;373        wr_reg(0x5C, 0x1D);
000334  211d              MOVS     r1,#0x1d
000336  205c              MOVS     r0,#0x5c
000338  f7fffffe          BL       wr_reg
;;;374        wr_reg(0x5D, 0xCC);
00033c  21cc              MOVS     r1,#0xcc
00033e  205d              MOVS     r0,#0x5d
000340  f7fffffe          BL       wr_reg
;;;375    
;;;376        /* Power voltage setting -------------------------------------------------*/
;;;377        wr_reg(0x1B, 0x1B);
000344  211b              MOVS     r1,#0x1b
000346  4608              MOV      r0,r1
000348  f7fffffe          BL       wr_reg
;;;378        wr_reg(0x1A, 0x01);
00034c  2101              MOVS     r1,#1
00034e  201a              MOVS     r0,#0x1a
000350  f7fffffe          BL       wr_reg
;;;379        wr_reg(0x24, 0x2F);
000354  212f              MOVS     r1,#0x2f
000356  2024              MOVS     r0,#0x24
000358  f7fffffe          BL       wr_reg
;;;380        wr_reg(0x25, 0x57);
00035c  2157              MOVS     r1,#0x57
00035e  2025              MOVS     r0,#0x25
000360  f7fffffe          BL       wr_reg
;;;381        wr_reg(0x23, 0x88);
000364  2188              MOVS     r1,#0x88
000366  2023              MOVS     r0,#0x23
000368  f7fffffe          BL       wr_reg
;;;382    
;;;383        /* Power on setting ------------------------------------------------------*/
;;;384        wr_reg(0x18, 0x36);                 /* Internal oscillator frequency adj  */
00036c  2136              MOVS     r1,#0x36
00036e  2018              MOVS     r0,#0x18
000370  f7fffffe          BL       wr_reg
;;;385        wr_reg(0x19, 0x01);                 /* Enable internal oscillator         */
000374  2101              MOVS     r1,#1
000376  2019              MOVS     r0,#0x19
000378  f7fffffe          BL       wr_reg
;;;386        wr_reg(0x01, 0x00);                 /* Normal mode, no scrool             */
00037c  2100              MOVS     r1,#0
00037e  2001              MOVS     r0,#1
000380  f7fffffe          BL       wr_reg
;;;387        wr_reg(0x1F, 0x88);                 /* Power control 6 - DDVDH Off        */
000384  2188              MOVS     r1,#0x88
000386  201f              MOVS     r0,#0x1f
000388  f7fffffe          BL       wr_reg
;;;388        delay(20);
00038c  2014              MOVS     r0,#0x14
00038e  f7fffffe          BL       delay
;;;389        wr_reg(0x1F, 0x82);                 /* Power control 6 - Step-up: 3 x VCI */
000392  2182              MOVS     r1,#0x82
000394  201f              MOVS     r0,#0x1f
000396  f7fffffe          BL       wr_reg
;;;390        delay(5);
00039a  2005              MOVS     r0,#5
00039c  f7fffffe          BL       delay
;;;391        wr_reg(0x1F, 0x92);                 /* Power control 6 - Step-up: On      */
0003a0  2192              MOVS     r1,#0x92
0003a2  201f              MOVS     r0,#0x1f
0003a4  f7fffffe          BL       wr_reg
;;;392        delay(5);
0003a8  2005              MOVS     r0,#5
0003aa  f7fffffe          BL       delay
;;;393        wr_reg(0x1F, 0xD2);                 /* Power control 6 - VCOML active     */
0003ae  21d2              MOVS     r1,#0xd2
0003b0  201f              MOVS     r0,#0x1f
0003b2  f7fffffe          BL       wr_reg
;;;394        delay(5);
0003b6  2005              MOVS     r0,#5
0003b8  f7fffffe          BL       delay
;;;395    
;;;396        /* Color selection -------------------------------------------------------*/
;;;397        wr_reg(0x17, 0x55);                 /* RGB, System interface: 16 Bit/Pixel*/
0003bc  2155              MOVS     r1,#0x55
0003be  2017              MOVS     r0,#0x17
0003c0  f7fffffe          BL       wr_reg
;;;398        wr_reg(0x00, 0x00);                 /* Scrolling off, no standby          */
0003c4  2100              MOVS     r1,#0
0003c6  4608              MOV      r0,r1
0003c8  f7fffffe          BL       wr_reg
;;;399    
;;;400        /* Interface config ------------------------------------------------------*/
;;;401        wr_reg(0x2F, 0x11);                 /* LCD Drive: 1-line inversion        */
0003cc  2111              MOVS     r1,#0x11
0003ce  202f              MOVS     r0,#0x2f
0003d0  f7fffffe          BL       wr_reg
;;;402        wr_reg(0x31, 0x00);
0003d4  2100              MOVS     r1,#0
0003d6  2031              MOVS     r0,#0x31
0003d8  f7fffffe          BL       wr_reg
;;;403        wr_reg(0x32, 0x00);                 /* DPL=0, HSPL=0, VSPL=0, EPL=0       */
0003dc  2100              MOVS     r1,#0
0003de  2032              MOVS     r0,#0x32
0003e0  f7fffffe          BL       wr_reg
;;;404    
;;;405        /* Display on setting ----------------------------------------------------*/
;;;406        wr_reg(0x28, 0x38);                 /* PT(0,0) active, VGL/VGL            */
0003e4  2138              MOVS     r1,#0x38
0003e6  2028              MOVS     r0,#0x28
0003e8  f7fffffe          BL       wr_reg
;;;407        delay(20);
0003ec  2014              MOVS     r0,#0x14
0003ee  f7fffffe          BL       delay
;;;408        wr_reg(0x28, 0x3C);                 /* Display active, VGL/VGL            */
0003f2  213c              MOVS     r1,#0x3c
0003f4  2028              MOVS     r0,#0x28
0003f6  f7fffffe          BL       wr_reg
;;;409    
;;;410       #if (LANDSCAPE == 1)
;;;411        #if (ROTATE180 == 0)
;;;412         wr_reg (0x16, 0xA8);
0003fa  21a8              MOVS     r1,#0xa8
0003fc  2016              MOVS     r0,#0x16
0003fe  f7fffffe          BL       wr_reg
;;;413        #else
;;;414         wr_reg (0x16, 0x68);
;;;415        #endif
;;;416       #else
;;;417        #if (ROTATE180 == 0)
;;;418         wr_reg (0x16, 0x08);
;;;419        #else
;;;420         wr_reg (0x16, 0xC8);
;;;421        #endif
;;;422       #endif
;;;423    
;;;424        /* Display scrolling settings --------------------------------------------*/
;;;425        wr_reg(0x0E, 0x00);                 /* TFA MSB                            */
000402  2100              MOVS     r1,#0
000404  200e              MOVS     r0,#0xe
000406  f7fffffe          BL       wr_reg
;;;426        wr_reg(0x0F, 0x00);                 /* TFA LSB                            */
00040a  2100              MOVS     r1,#0
00040c  200f              MOVS     r0,#0xf
00040e  f7fffffe          BL       wr_reg
;;;427        wr_reg(0x10, 320 >> 8);             /* VSA MSB                            */
000412  2101              MOVS     r1,#1
000414  2010              MOVS     r0,#0x10
000416  e009              B        |L1.1068|
                  |L1.1048|
                          DCD      0x2009c000
                  |L1.1052|
                          DCD      0x4002c000
                  |L1.1056|
                          DCD      0x400fc0c4
                  |L1.1060|
                          DCD      0x40030000
                  |L1.1064|
                          DCD      Himax
                  |L1.1068|
00042c  f7fffffe          BL       wr_reg
;;;428        wr_reg(0x11, 320 &  0xFF);          /* VSA LSB                            */
000430  2140              MOVS     r1,#0x40
000432  2011              MOVS     r0,#0x11
000434  f7fffffe          BL       wr_reg
;;;429        wr_reg(0x12, 0x00);                 /* BFA MSB                            */
000438  2100              MOVS     r1,#0
00043a  2012              MOVS     r0,#0x12
00043c  f7fffffe          BL       wr_reg
;;;430        wr_reg(0x13, 0x00);                 /* BFA LSB                            */
000440  2100              MOVS     r1,#0
000442  2013              MOVS     r0,#0x13
000444  f7fffffe          BL       wr_reg
000448  e192              B        |L1.1904|
                  |L1.1098|
;;;431      }
;;;432      else {
;;;433        Himax = 0;                          /* This is not Himax LCD controller   */
00044a  2000              MOVS     r0,#0
00044c  49f9              LDR      r1,|L1.2100|
00044e  7008              STRB     r0,[r1,#0]
;;;434        /* Start Initial Sequence ------------------------------------------------*/
;;;435       #if (ROTATE180 == 1)
;;;436        wr_reg(0x01, 0x0000);               /* Clear SS bit                       */
;;;437       #else
;;;438        wr_reg(0x01, 0x0100);               /* Set SS bit                         */
000450  f44f7180          MOV      r1,#0x100
000454  2001              MOVS     r0,#1
000456  f7fffffe          BL       wr_reg
;;;439       #endif
;;;440        wr_reg(0x02, 0x0700);               /* Set 1 line inversion               */
00045a  f44f61e0          MOV      r1,#0x700
00045e  2002              MOVS     r0,#2
000460  f7fffffe          BL       wr_reg
;;;441        wr_reg(0x04, 0x0000);               /* Resize register                    */
000464  2100              MOVS     r1,#0
000466  2004              MOVS     r0,#4
000468  f7fffffe          BL       wr_reg
;;;442        wr_reg(0x08, 0x0207);               /* 2 lines front, 7 back porch        */
00046c  f2402107          MOV      r1,#0x207
000470  2008              MOVS     r0,#8
000472  f7fffffe          BL       wr_reg
;;;443        wr_reg(0x09, 0x0000);               /* Set non-disp area refresh cyc ISC  */
000476  2100              MOVS     r1,#0
000478  2009              MOVS     r0,#9
00047a  f7fffffe          BL       wr_reg
;;;444        wr_reg(0x0A, 0x0000);               /* FMARK function                     */
00047e  2100              MOVS     r1,#0
000480  200a              MOVS     r0,#0xa
000482  f7fffffe          BL       wr_reg
;;;445        wr_reg(0x0C, 0x0000);               /* RGB interface setting              */
000486  2100              MOVS     r1,#0
000488  200c              MOVS     r0,#0xc
00048a  f7fffffe          BL       wr_reg
;;;446        wr_reg(0x0D, 0x0000);               /* Frame marker Position              */
00048e  2100              MOVS     r1,#0
000490  200d              MOVS     r0,#0xd
000492  f7fffffe          BL       wr_reg
;;;447        wr_reg(0x0F, 0x0000);               /* RGB interface polarity             */
000496  2100              MOVS     r1,#0
000498  200f              MOVS     r0,#0xf
00049a  f7fffffe          BL       wr_reg
;;;448    
;;;449        /* Power On sequence -----------------------------------------------------*/
;;;450        wr_reg(0x10, 0x0000);               /* Reset Power Control 1              */
00049e  2100              MOVS     r1,#0
0004a0  2010              MOVS     r0,#0x10
0004a2  f7fffffe          BL       wr_reg
;;;451        wr_reg(0x11, 0x0000);               /* Reset Power Control 2              */
0004a6  2100              MOVS     r1,#0
0004a8  2011              MOVS     r0,#0x11
0004aa  f7fffffe          BL       wr_reg
;;;452        wr_reg(0x12, 0x0000);               /* Reset Power Control 3              */
0004ae  2100              MOVS     r1,#0
0004b0  2012              MOVS     r0,#0x12
0004b2  f7fffffe          BL       wr_reg
;;;453        wr_reg(0x13, 0x0000);               /* Reset Power Control 4              */
0004b6  2100              MOVS     r1,#0
0004b8  2013              MOVS     r0,#0x13
0004ba  f7fffffe          BL       wr_reg
;;;454        delay(20);                          /* Discharge cap power voltage (200ms)*/
0004be  2014              MOVS     r0,#0x14
0004c0  f7fffffe          BL       delay
;;;455        wr_reg(0x10, 0x12B0);               /* SAP, BT[3:0], AP, DSTB, SLP, STB   */
0004c4  f24121b0          MOV      r1,#0x12b0
0004c8  2010              MOVS     r0,#0x10
0004ca  f7fffffe          BL       wr_reg
;;;456        wr_reg(0x11, 0x0007);               /* DC1[2:0], DC0[2:0], VC[2:0]        */
0004ce  2107              MOVS     r1,#7
0004d0  2011              MOVS     r0,#0x11
0004d2  f7fffffe          BL       wr_reg
;;;457        delay(5);                           /* Delay 50 ms                        */
0004d6  2005              MOVS     r0,#5
0004d8  f7fffffe          BL       delay
;;;458        wr_reg(0x12, 0x01BD);               /* VREG1OUT voltage                   */
0004dc  f24011bd          MOV      r1,#0x1bd
0004e0  2012              MOVS     r0,#0x12
0004e2  f7fffffe          BL       wr_reg
;;;459        delay(5);                           /* Delay 50 ms                        */
0004e6  2005              MOVS     r0,#5
0004e8  f7fffffe          BL       delay
;;;460        wr_reg(0x13, 0x1400);               /* VDV[4:0] for VCOM amplitude        */
0004ec  f44f51a0          MOV      r1,#0x1400
0004f0  2013              MOVS     r0,#0x13
0004f2  f7fffffe          BL       wr_reg
;;;461        wr_reg(0x29, 0x000E);               /* VCM[4:0] for VCOMH                 */
0004f6  210e              MOVS     r1,#0xe
0004f8  2029              MOVS     r0,#0x29
0004fa  f7fffffe          BL       wr_reg
;;;462        delay(5);                           /* Delay 50 ms                        */
0004fe  2005              MOVS     r0,#5
000500  f7fffffe          BL       delay
;;;463        wr_reg(0x20, 0x0000);               /* GRAM horizontal Address            */
000504  2100              MOVS     r1,#0
000506  2020              MOVS     r0,#0x20
000508  f7fffffe          BL       wr_reg
;;;464        wr_reg(0x21, 0x0000);               /* GRAM Vertical Address              */
00050c  2100              MOVS     r1,#0
00050e  2021              MOVS     r0,#0x21
000510  f7fffffe          BL       wr_reg
;;;465    
;;;466        /* Adjust the Gamma Curve ------------------------------------------------*/
;;;467        switch (driverCode) {
000514  f5a440a8          SUB      r0,r4,#0x5400
000518  3808              SUBS     r0,r0,#8
00051a  b138              CBZ      r0,|L1.1324|
00051c  f5a0507c          SUB      r0,r0,#0x3f00
000520  3818              SUBS     r0,r0,#0x18
000522  2800              CMP      r0,#0
000524  d07e              BEQ      |L1.1572|
000526  2805              CMP      r0,#5
000528  d17d              BNE      |L1.1574|
00052a  e050              B        |L1.1486|
                  |L1.1324|
;;;468          case 0x5408:                      /* LCD with SPFD5408 LCD Controller   */
;;;469            wr_reg(0x30, 0x0B0D);
00052c  f640310d          MOV      r1,#0xb0d
000530  2030              MOVS     r0,#0x30
000532  f7fffffe          BL       wr_reg
;;;470            wr_reg(0x31, 0x1923);
000536  f6411123          MOV      r1,#0x1923
00053a  2031              MOVS     r0,#0x31
00053c  f7fffffe          BL       wr_reg
;;;471            wr_reg(0x32, 0x1C26);
000540  f6414126          MOV      r1,#0x1c26
000544  2032              MOVS     r0,#0x32
000546  f7fffffe          BL       wr_reg
;;;472            wr_reg(0x33, 0x261C);
00054a  f242611c          MOV      r1,#0x261c
00054e  2033              MOVS     r0,#0x33
000550  f7fffffe          BL       wr_reg
;;;473            wr_reg(0x34, 0x2419);
000554  f2424119          MOV      r1,#0x2419
000558  2034              MOVS     r0,#0x34
00055a  f7fffffe          BL       wr_reg
;;;474            wr_reg(0x35, 0x0D0B);
00055e  f640510b          MOV      r1,#0xd0b
000562  2035              MOVS     r0,#0x35
000564  f7fffffe          BL       wr_reg
;;;475            wr_reg(0x36, 0x1006);
000568  f2410106          MOV      r1,#0x1006
00056c  2036              MOVS     r0,#0x36
00056e  f7fffffe          BL       wr_reg
;;;476            wr_reg(0x37, 0x0610);
000572  f44f61c2          MOV      r1,#0x610
000576  2037              MOVS     r0,#0x37
000578  f7fffffe          BL       wr_reg
;;;477            wr_reg(0x38, 0x0706);
00057c  f2407106          MOV      r1,#0x706
000580  2038              MOVS     r0,#0x38
000582  f7fffffe          BL       wr_reg
;;;478            wr_reg(0x39, 0x0304);
000586  f44f7141          MOV      r1,#0x304
00058a  2039              MOVS     r0,#0x39
00058c  f7fffffe          BL       wr_reg
;;;479            wr_reg(0x3A, 0x0E05);
000590  f6406105          MOV      r1,#0xe05
000594  203a              MOVS     r0,#0x3a
000596  f7fffffe          BL       wr_reg
;;;480            wr_reg(0x3B, 0x0E01);
00059a  f6406101          MOV      r1,#0xe01
00059e  203b              MOVS     r0,#0x3b
0005a0  f7fffffe          BL       wr_reg
;;;481            wr_reg(0x3C, 0x010E);
0005a4  f44f7187          MOV      r1,#0x10e
0005a8  203c              MOVS     r0,#0x3c
0005aa  f7fffffe          BL       wr_reg
;;;482            wr_reg(0x3D, 0x050E);
0005ae  f240510e          MOV      r1,#0x50e
0005b2  203d              MOVS     r0,#0x3d
0005b4  f7fffffe          BL       wr_reg
;;;483            wr_reg(0x3E, 0x0403);
0005b8  f2404103          MOV      r1,#0x403
0005bc  203e              MOVS     r0,#0x3e
0005be  f7fffffe          BL       wr_reg
;;;484            wr_reg(0x3F, 0x0607);
0005c2  f2406107          MOV      r1,#0x607
0005c6  203f              MOVS     r0,#0x3f
0005c8  f7fffffe          BL       wr_reg
;;;485            break;
0005cc  e061              B        |L1.1682|
                  |L1.1486|
;;;486    
;;;487          case 0x9325:                      /* LCD with RM68050 LCD Controller    */
;;;488            wr_reg(0x0030,0x0000);
0005ce  2100              MOVS     r1,#0
0005d0  2030              MOVS     r0,#0x30
0005d2  f7fffffe          BL       wr_reg
;;;489            wr_reg(0x0031,0x0607);
0005d6  f2406107          MOV      r1,#0x607
0005da  2031              MOVS     r0,#0x31
0005dc  f7fffffe          BL       wr_reg
;;;490            wr_reg(0x0032,0x0305);
0005e0  f2403105          MOV      r1,#0x305
0005e4  2032              MOVS     r0,#0x32
0005e6  f7fffffe          BL       wr_reg
;;;491            wr_reg(0x0035,0x0000);
0005ea  2100              MOVS     r1,#0
0005ec  2035              MOVS     r0,#0x35
0005ee  f7fffffe          BL       wr_reg
;;;492            wr_reg(0x0036,0x1604);
0005f2  f2416104          MOV      r1,#0x1604
0005f6  2036              MOVS     r0,#0x36
0005f8  f7fffffe          BL       wr_reg
;;;493            wr_reg(0x0037,0x0204);
0005fc  f44f7101          MOV      r1,#0x204
000600  2037              MOVS     r0,#0x37
000602  f7fffffe          BL       wr_reg
;;;494            wr_reg(0x0038,0x0001);
000606  2101              MOVS     r1,#1
000608  2038              MOVS     r0,#0x38
00060a  f7fffffe          BL       wr_reg
;;;495            wr_reg(0x0039,0x0707);
00060e  f2407107          MOV      r1,#0x707
000612  2039              MOVS     r0,#0x39
000614  f7fffffe          BL       wr_reg
;;;496            wr_reg(0x003C,0x0000);
000618  2100              MOVS     r1,#0
00061a  203c              MOVS     r0,#0x3c
00061c  f7fffffe          BL       wr_reg
;;;497            wr_reg(0x003D,0x000F);
000620  210f              MOVS     r1,#0xf
000622  e001              B        |L1.1576|
                  |L1.1572|
000624  e005              B        |L1.1586|
                  |L1.1574|
000626  e003              B        |L1.1584|
                  |L1.1576|
000628  203d              MOVS     r0,#0x3d
00062a  f7fffffe          BL       wr_reg
;;;498            break;
00062e  e030              B        |L1.1682|
                  |L1.1584|
;;;499    
;;;500          case 0x9320:                      /* LCD with ILI9320 LCD Controller    */
000630  bf00              NOP      
                  |L1.1586|
;;;501          default:                          /* LCD with other LCD Controller      */
;;;502            wr_reg(0x30, 0x0006);
000632  2106              MOVS     r1,#6
000634  2030              MOVS     r0,#0x30
000636  f7fffffe          BL       wr_reg
;;;503            wr_reg(0x31, 0x0101);
00063a  f2401101          MOV      r1,#0x101
00063e  2031              MOVS     r0,#0x31
000640  f7fffffe          BL       wr_reg
;;;504            wr_reg(0x32, 0x0003);
000644  2103              MOVS     r1,#3
000646  2032              MOVS     r0,#0x32
000648  f7fffffe          BL       wr_reg
;;;505            wr_reg(0x35, 0x0106);
00064c  f44f7183          MOV      r1,#0x106
000650  2035              MOVS     r0,#0x35
000652  f7fffffe          BL       wr_reg
;;;506            wr_reg(0x36, 0x0B02);
000656  f6403102          MOV      r1,#0xb02
00065a  2036              MOVS     r0,#0x36
00065c  f7fffffe          BL       wr_reg
;;;507            wr_reg(0x37, 0x0302);
000660  f2403102          MOV      r1,#0x302
000664  2037              MOVS     r0,#0x37
000666  f7fffffe          BL       wr_reg
;;;508            wr_reg(0x38, 0x0707);
00066a  f2407107          MOV      r1,#0x707
00066e  2038              MOVS     r0,#0x38
000670  f7fffffe          BL       wr_reg
;;;509            wr_reg(0x39, 0x0007);
000674  2107              MOVS     r1,#7
000676  2039              MOVS     r0,#0x39
000678  f7fffffe          BL       wr_reg
;;;510            wr_reg(0x3C, 0x0600);
00067c  f44f61c0          MOV      r1,#0x600
000680  203c              MOVS     r0,#0x3c
000682  f7fffffe          BL       wr_reg
;;;511            wr_reg(0x3D, 0x020B);
000686  f240210b          MOV      r1,#0x20b
00068a  203d              MOVS     r0,#0x3d
00068c  f7fffffe          BL       wr_reg
;;;512            break;
000690  bf00              NOP      
                  |L1.1682|
000692  bf00              NOP                            ;485
;;;513        }
;;;514    
;;;515        /* Set GRAM area ---------------------------------------------------------*/
;;;516        wr_reg(0x50, 0x0000);               /* Horizontal GRAM Start Address      */
000694  2100              MOVS     r1,#0
000696  2050              MOVS     r0,#0x50
000698  f7fffffe          BL       wr_reg
;;;517        wr_reg(0x51, (HEIGHT-1));           /* Horizontal GRAM End   Address      */
00069c  21ef              MOVS     r1,#0xef
00069e  2051              MOVS     r0,#0x51
0006a0  f7fffffe          BL       wr_reg
;;;518        wr_reg(0x52, 0x0000);               /* Vertical   GRAM Start Address      */
0006a4  2100              MOVS     r1,#0
0006a6  2052              MOVS     r0,#0x52
0006a8  f7fffffe          BL       wr_reg
;;;519        wr_reg(0x53, (WIDTH-1));            /* Vertical   GRAM End   Address      */
0006ac  f240113f          MOV      r1,#0x13f
0006b0  2053              MOVS     r0,#0x53
0006b2  f7fffffe          BL       wr_reg
;;;520    
;;;521        /* Set Gate Scan Line ----------------------------------------------------*/
;;;522        switch (driverCode) {
0006b6  f5a440a8          SUB      r0,r4,#0x5400
0006ba  3808              SUBS     r0,r0,#8
0006bc  b130              CBZ      r0,|L1.1740|
0006be  f5a0507c          SUB      r0,r0,#0x3f00
0006c2  3818              SUBS     r0,r0,#0x18
0006c4  b150              CBZ      r0,|L1.1756|
0006c6  2805              CMP      r0,#5
0006c8  d107              BNE      |L1.1754|
0006ca  e000              B        |L1.1742|
                  |L1.1740|
;;;523          case 0x5408:                      /* LCD with SPFD5408 LCD Controller   */
;;;524          case 0x9325:                      /* LCD with RM68050 LCD Controller    */
0006cc  bf00              NOP      
                  |L1.1742|
;;;525           #if (LANDSCAPE ^ ROTATE180)
;;;526            wr_reg(0x60, 0x2700);
0006ce  f44f511c          MOV      r1,#0x2700
0006d2  2060              MOVS     r0,#0x60
0006d4  f7fffffe          BL       wr_reg
;;;527           #else
;;;528            wr_reg(0x60, 0xA700);
;;;529           #endif
;;;530            break;
0006d8  e006              B        |L1.1768|
                  |L1.1754|
;;;531    
;;;532          case 0x9320:                      /* LCD with ILI9320 LCD Controller    */
0006da  bf00              NOP      
                  |L1.1756|
;;;533          default:                          /* LCD with other LCD Controller      */
;;;534           #if (LANDSCAPE ^ ROTATE180)
;;;535            wr_reg(0x60, 0xA700);
0006dc  f44f4127          MOV      r1,#0xa700
0006e0  2060              MOVS     r0,#0x60
0006e2  f7fffffe          BL       wr_reg
;;;536           #else
;;;537            wr_reg(0x60, 0x2700);
;;;538           #endif
;;;539            break;
0006e6  bf00              NOP      
                  |L1.1768|
0006e8  bf00              NOP                            ;530
;;;540        }
;;;541        wr_reg(0x61, 0x0001);               /* NDL,VLE, REV                       */
0006ea  2101              MOVS     r1,#1
0006ec  2061              MOVS     r0,#0x61
0006ee  f7fffffe          BL       wr_reg
;;;542        wr_reg(0x6A, 0x0000);               /* Set scrolling line                 */
0006f2  2100              MOVS     r1,#0
0006f4  206a              MOVS     r0,#0x6a
0006f6  f7fffffe          BL       wr_reg
;;;543    
;;;544        /* Partial Display Control -----------------------------------------------*/
;;;545        wr_reg(0x80, 0x0000);
0006fa  2100              MOVS     r1,#0
0006fc  2080              MOVS     r0,#0x80
0006fe  f7fffffe          BL       wr_reg
;;;546        wr_reg(0x81, 0x0000);
000702  2100              MOVS     r1,#0
000704  2081              MOVS     r0,#0x81
000706  f7fffffe          BL       wr_reg
;;;547        wr_reg(0x82, 0x0000);
00070a  2100              MOVS     r1,#0
00070c  2082              MOVS     r0,#0x82
00070e  f7fffffe          BL       wr_reg
;;;548        wr_reg(0x83, 0x0000);
000712  2100              MOVS     r1,#0
000714  2083              MOVS     r0,#0x83
000716  f7fffffe          BL       wr_reg
;;;549        wr_reg(0x84, 0x0000);
00071a  2100              MOVS     r1,#0
00071c  2084              MOVS     r0,#0x84
00071e  f7fffffe          BL       wr_reg
;;;550        wr_reg(0x85, 0x0000);
000722  2100              MOVS     r1,#0
000724  2085              MOVS     r0,#0x85
000726  f7fffffe          BL       wr_reg
;;;551    
;;;552        /* Panel Control ---------------------------------------------------------*/
;;;553        wr_reg(0x90, 0x0010);
00072a  2110              MOVS     r1,#0x10
00072c  2090              MOVS     r0,#0x90
00072e  f7fffffe          BL       wr_reg
;;;554        wr_reg(0x92, 0x0000);
000732  2100              MOVS     r1,#0
000734  2092              MOVS     r0,#0x92
000736  f7fffffe          BL       wr_reg
;;;555        wr_reg(0x93, 0x0003);
00073a  2103              MOVS     r1,#3
00073c  2093              MOVS     r0,#0x93
00073e  f7fffffe          BL       wr_reg
;;;556        wr_reg(0x95, 0x0110);
000742  f44f7188          MOV      r1,#0x110
000746  2095              MOVS     r0,#0x95
000748  f7fffffe          BL       wr_reg
;;;557        wr_reg(0x97, 0x0000);
00074c  2100              MOVS     r1,#0
00074e  2097              MOVS     r0,#0x97
000750  f7fffffe          BL       wr_reg
;;;558        wr_reg(0x98, 0x0000);
000754  2100              MOVS     r1,#0
000756  2098              MOVS     r0,#0x98
000758  f7fffffe          BL       wr_reg
;;;559    
;;;560        /* Set GRAM write direction
;;;561           I/D=11 (Horizontal : increment, Vertical : increment)                  */
;;;562      #if (LANDSCAPE == 1)
;;;563        /* AM=1   (address is updated in vertical writing direction)              */
;;;564        wr_reg(0x03, 0x1038);
00075c  f2410138          MOV      r1,#0x1038
000760  2003              MOVS     r0,#3
000762  f7fffffe          BL       wr_reg
;;;565      #else
;;;566        /* AM=0   (address is updated in horizontal writing direction)            */
;;;567        wr_reg(0x03, 0x1030);
;;;568      #endif
;;;569    
;;;570        wr_reg(0x07, 0x0137);               /* 262K color and display ON          */
000766  f2401137          MOV      r1,#0x137
00076a  2007              MOVS     r0,#7
00076c  f7fffffe          BL       wr_reg
                  |L1.1904|
;;;571      }
;;;572      LPC_GPIO4->FIOSET = 0x10000000;
000770  f04f5080          MOV      r0,#0x10000000
000774  4930              LDR      r1,|L1.2104|
000776  6008              STR      r0,[r1,#0]
;;;573    }
000778  bd10              POP      {r4,pc}
;;;574    
                          ENDP

                  GLCD_SetWindow PROC
;;;584    
;;;585    void GLCD_SetWindow (unsigned int x, unsigned int y, unsigned int w, unsigned int h) {
00077a  e92d47f0          PUSH     {r4-r10,lr}
00077e  4604              MOV      r4,r0
000780  460d              MOV      r5,r1
000782  4616              MOV      r6,r2
000784  461f              MOV      r7,r3
;;;586      unsigned int xe, ye;
;;;587    
;;;588      if (Himax) {
000786  482b              LDR      r0,|L1.2100|
000788  7800              LDRB     r0,[r0,#0]  ; Himax
00078a  b360              CBZ      r0,|L1.2022|
;;;589        xe = x+w-1;
00078c  19a0              ADDS     r0,r4,r6
00078e  f1a00801          SUB      r8,r0,#1
;;;590        ye = y+h-1;
000792  19e8              ADDS     r0,r5,r7
000794  f1a00901          SUB      r9,r0,#1
;;;591    
;;;592        wr_reg(0x02, x  >>    8);           /* Column address start MSB           */
000798  f3c4210f          UBFX     r1,r4,#8,#16
00079c  2002              MOVS     r0,#2
00079e  f7fffffe          BL       wr_reg
;;;593        wr_reg(0x03, x  &  0xFF);           /* Column address start LSB           */
0007a2  b2e1              UXTB     r1,r4
0007a4  2003              MOVS     r0,#3
0007a6  f7fffffe          BL       wr_reg
;;;594        wr_reg(0x04, xe >>    8);           /* Column address end MSB             */
0007aa  f3c8210f          UBFX     r1,r8,#8,#16
0007ae  2004              MOVS     r0,#4
0007b0  f7fffffe          BL       wr_reg
;;;595        wr_reg(0x05, xe &  0xFF);           /* Column address end LSB             */
0007b4  f00801ff          AND      r1,r8,#0xff
0007b8  2005              MOVS     r0,#5
0007ba  f7fffffe          BL       wr_reg
;;;596      
;;;597        wr_reg(0x06, y  >>    8);           /* Row address start MSB              */
0007be  f3c5210f          UBFX     r1,r5,#8,#16
0007c2  2006              MOVS     r0,#6
0007c4  f7fffffe          BL       wr_reg
;;;598        wr_reg(0x07, y  &  0xFF);           /* Row address start LSB              */
0007c8  b2e9              UXTB     r1,r5
0007ca  2007              MOVS     r0,#7
0007cc  f7fffffe          BL       wr_reg
;;;599        wr_reg(0x08, ye >>    8);           /* Row address end MSB                */
0007d0  f3c9210f          UBFX     r1,r9,#8,#16
0007d4  2008              MOVS     r0,#8
0007d6  f7fffffe          BL       wr_reg
;;;600        wr_reg(0x09, ye &  0xFF);           /* Row address end LSB                */
0007da  f00901ff          AND      r1,r9,#0xff
0007de  2009              MOVS     r0,#9
0007e0  f7fffffe          BL       wr_reg
0007e4  e01b              B        |L1.2078|
                  |L1.2022|
;;;601      }
;;;602      else {
;;;603       #if (LANDSCAPE == 1)
;;;604        wr_reg(0x50, y);                    /* Vertical   GRAM Start Address      */
0007e6  b2a9              UXTH     r1,r5
0007e8  2050              MOVS     r0,#0x50
0007ea  f7fffffe          BL       wr_reg
;;;605        wr_reg(0x51, y+h-1);                /* Vertical   GRAM End   Address (-1) */
0007ee  19e8              ADDS     r0,r5,r7
0007f0  1e40              SUBS     r0,r0,#1
0007f2  b281              UXTH     r1,r0
0007f4  2051              MOVS     r0,#0x51
0007f6  f7fffffe          BL       wr_reg
;;;606        wr_reg(0x52, x);                    /* Horizontal GRAM Start Address      */
0007fa  b2a1              UXTH     r1,r4
0007fc  2052              MOVS     r0,#0x52
0007fe  f7fffffe          BL       wr_reg
;;;607        wr_reg(0x53, x+w-1);                /* Horizontal GRAM End   Address (-1) */
000802  19a0              ADDS     r0,r4,r6
000804  1e40              SUBS     r0,r0,#1
000806  b281              UXTH     r1,r0
000808  2053              MOVS     r0,#0x53
00080a  f7fffffe          BL       wr_reg
;;;608        wr_reg(0x20, y);
00080e  b2a9              UXTH     r1,r5
000810  2020              MOVS     r0,#0x20
000812  f7fffffe          BL       wr_reg
;;;609        wr_reg(0x21, x);
000816  b2a1              UXTH     r1,r4
000818  2021              MOVS     r0,#0x21
00081a  f7fffffe          BL       wr_reg
                  |L1.2078|
;;;610       #else
;;;611        wr_reg(0x50, x);                    /* Horizontal GRAM Start Address      */
;;;612        wr_reg(0x51, x+w-1);                /* Horizontal GRAM End   Address (-1) */
;;;613        wr_reg(0x52, y);                    /* Vertical   GRAM Start Address      */
;;;614        wr_reg(0x53, y+h-1);                /* Vertical   GRAM End   Address (-1) */
;;;615        wr_reg(0x20, x);
;;;616        wr_reg(0x21, y);
;;;617       #endif
;;;618      }
;;;619    }
00081e  e8bd87f0          POP      {r4-r10,pc}
;;;620    
                          ENDP

                  GLCD_WindowMax PROC
;;;627    
;;;628    void GLCD_WindowMax (void) {
000822  b510              PUSH     {r4,lr}
;;;629      GLCD_SetWindow (0, 0, WIDTH, HEIGHT);
000824  23f0              MOVS     r3,#0xf0
000826  f44f72a0          MOV      r2,#0x140
00082a  2100              MOVS     r1,#0
00082c  4608              MOV      r0,r1
00082e  f7fffffe          BL       GLCD_SetWindow
;;;630    }
000832  bd10              POP      {r4,pc}
                  |L1.2100|
                          DCD      Himax
                  |L1.2104|
                          DCD      0x2009c098
                          ENDP

                  GLCD_PutPixel PROC
;;;639    
;;;640    void GLCD_PutPixel (unsigned int x, unsigned int y) {
00083c  b570              PUSH     {r4-r6,lr}
00083e  4604              MOV      r4,r0
000840  460d              MOV      r5,r1
;;;641    
;;;642      if (Himax) {
000842  48d0              LDR      r0,|L1.2948|
000844  7800              LDRB     r0,[r0,#0]  ; Himax
000846  b320              CBZ      r0,|L1.2194|
;;;643        wr_reg(0x02, x >>    8);            /* Column address start MSB           */
000848  f3c4210f          UBFX     r1,r4,#8,#16
00084c  2002              MOVS     r0,#2
00084e  f7fffffe          BL       wr_reg
;;;644        wr_reg(0x03, x &  0xFF);            /* Column address start LSB           */
000852  b2e1              UXTB     r1,r4
000854  2003              MOVS     r0,#3
000856  f7fffffe          BL       wr_reg
;;;645        wr_reg(0x04, x >>    8);            /* Column address end MSB             */
00085a  f3c4210f          UBFX     r1,r4,#8,#16
00085e  2004              MOVS     r0,#4
000860  f7fffffe          BL       wr_reg
;;;646        wr_reg(0x05, x &  0xFF);            /* Column address end LSB             */
000864  b2e1              UXTB     r1,r4
000866  2005              MOVS     r0,#5
000868  f7fffffe          BL       wr_reg
;;;647      
;;;648        wr_reg(0x06, y >>    8);            /* Row address start MSB              */
00086c  f3c5210f          UBFX     r1,r5,#8,#16
000870  2006              MOVS     r0,#6
000872  f7fffffe          BL       wr_reg
;;;649        wr_reg(0x07, y &  0xFF);            /* Row address start LSB              */
000876  b2e9              UXTB     r1,r5
000878  2007              MOVS     r0,#7
00087a  f7fffffe          BL       wr_reg
;;;650        wr_reg(0x08, y >>    8);            /* Row address end MSB                */
00087e  f3c5210f          UBFX     r1,r5,#8,#16
000882  2008              MOVS     r0,#8
000884  f7fffffe          BL       wr_reg
;;;651        wr_reg(0x09, y &  0xFF);            /* Row address end LSB                */
000888  b2e9              UXTB     r1,r5
00088a  2009              MOVS     r0,#9
00088c  f7fffffe          BL       wr_reg
000890  e007              B        |L1.2210|
                  |L1.2194|
;;;652      }
;;;653      else {
;;;654       #if (LANDSCAPE == 1)
;;;655        wr_reg(0x20, y);
000892  b2a9              UXTH     r1,r5
000894  2020              MOVS     r0,#0x20
000896  f7fffffe          BL       wr_reg
;;;656        wr_reg(0x21, x);
00089a  b2a1              UXTH     r1,r4
00089c  2021              MOVS     r0,#0x21
00089e  f7fffffe          BL       wr_reg
                  |L1.2210|
;;;657       #else
;;;658        wr_reg(0x20, x);
;;;659        wr_reg(0x21, y);
;;;660       #endif
;;;661      }
;;;662    
;;;663      wr_cmd(0x22);
0008a2  2022              MOVS     r0,#0x22
0008a4  f7fffffe          BL       wr_cmd
;;;664      wr_dat(Color[TXT_COLOR]);
0008a8  49b7              LDR      r1,|L1.2952|
0008aa  8848              LDRH     r0,[r1,#2]  ; Color
0008ac  f7fffffe          BL       wr_dat
;;;665    }
0008b0  bd70              POP      {r4-r6,pc}
;;;666    
                          ENDP

                  GLCD_SetTextColor PROC
;;;673    
;;;674    void GLCD_SetTextColor (unsigned short color) {
0008b2  49b5              LDR      r1,|L1.2952|
;;;675    
;;;676      Color[TXT_COLOR] = color;
0008b4  8048              STRH     r0,[r1,#2]
;;;677    }
0008b6  4770              BX       lr
;;;678    
                          ENDP

                  GLCD_SetBackColor PROC
;;;685    
;;;686    void GLCD_SetBackColor (unsigned short color) {
0008b8  49b3              LDR      r1,|L1.2952|
;;;687    
;;;688      Color[BG_COLOR] = color;
0008ba  8008              STRH     r0,[r1,#0]
;;;689    }
0008bc  4770              BX       lr
;;;690    
                          ENDP

                  GLCD_Clear PROC
;;;697    
;;;698    void GLCD_Clear (unsigned short color) {
0008be  b570              PUSH     {r4-r6,lr}
0008c0  4605              MOV      r5,r0
;;;699      unsigned int i;
;;;700    
;;;701      GLCD_WindowMax();
0008c2  f7fffffe          BL       GLCD_WindowMax
;;;702      wr_cmd(0x22);
0008c6  2022              MOVS     r0,#0x22
0008c8  f7fffffe          BL       wr_cmd
;;;703      wr_dat_start();
0008cc  f7fffffe          BL       wr_dat_start
;;;704    
;;;705      for(i = 0; i < (WIDTH*HEIGHT); i++)
0008d0  2400              MOVS     r4,#0
0008d2  e003              B        |L1.2268|
                  |L1.2260|
;;;706        wr_dat_only(color);
0008d4  4628              MOV      r0,r5
0008d6  f7fffffe          BL       wr_dat_only
0008da  1c64              ADDS     r4,r4,#1              ;705
                  |L1.2268|
0008dc  f5b43f96          CMP      r4,#0x12c00           ;705
0008e0  d3f8              BCC      |L1.2260|
;;;707      wr_dat_stop();
0008e2  f7fffffe          BL       wr_dat_stop
;;;708    }
0008e6  bd70              POP      {r4-r6,pc}
;;;709    
                          ENDP

                  GLCD_DrawChar PROC
;;;720    
;;;721    void GLCD_DrawChar (unsigned int x, unsigned int y, unsigned int cw, unsigned int ch, unsigned char *c) {
0008e8  e92d5fff          PUSH     {r0-r12,lr}
0008ec  4683              MOV      r11,r0
0008ee  4616              MOV      r6,r2
0008f0  4699              MOV      r9,r3
0008f2  9f0e              LDR      r7,[sp,#0x38]
;;;722      unsigned int i, j, k, pixs;
;;;723    
;;;724      GLCD_SetWindow(x, y, cw, ch);
0008f4  464b              MOV      r3,r9
0008f6  4632              MOV      r2,r6
0008f8  4658              MOV      r0,r11
0008fa  9901              LDR      r1,[sp,#4]
0008fc  f7fffffe          BL       GLCD_SetWindow
;;;725    
;;;726      wr_cmd(0x22);
000900  2022              MOVS     r0,#0x22
000902  f7fffffe          BL       wr_cmd
;;;727      wr_dat_start();
000906  f7fffffe          BL       wr_dat_start
;;;728    
;;;729      k  = (cw + 7)/8;
00090a  1df0              ADDS     r0,r6,#7
00090c  ea4f0ad0          LSR      r10,r0,#3
;;;730    
;;;731      if (k == 1) {
000910  f1ba0f01          CMP      r10,#1
000914  d116              BNE      |L1.2372|
;;;732        for (j = 0; j < ch; j++) {
000916  2500              MOVS     r5,#0
000918  e011              B        |L1.2366|
                  |L1.2330|
;;;733          pixs = *(unsigned char  *)c;
00091a  f8978000          LDRB     r8,[r7,#0]
;;;734          c += 1;
00091e  1c7f              ADDS     r7,r7,#1
;;;735          
;;;736          for (i = 0; i < cw; i++) {
000920  2400              MOVS     r4,#0
000922  e009              B        |L1.2360|
                  |L1.2340|
;;;737            wr_dat_only (Color[(pixs >> i) & 1]);
000924  fa28f104          LSR      r1,r8,r4
000928  f0010101          AND      r1,r1,#1
00092c  4a96              LDR      r2,|L1.2952|
00092e  f8320011          LDRH     r0,[r2,r1,LSL #1]
000932  f7fffffe          BL       wr_dat_only
000936  1c64              ADDS     r4,r4,#1              ;736
                  |L1.2360|
000938  42b4              CMP      r4,r6                 ;736
00093a  d3f3              BCC      |L1.2340|
00093c  1c6d              ADDS     r5,r5,#1              ;732
                  |L1.2366|
00093e  454d              CMP      r5,r9                 ;732
000940  d3eb              BCC      |L1.2330|
000942  e018              B        |L1.2422|
                  |L1.2372|
;;;738          }
;;;739        }
;;;740      }
;;;741      else if (k == 2) {
000944  f1ba0f02          CMP      r10,#2
000948  d115              BNE      |L1.2422|
;;;742        for (j = 0; j < ch; j++) {
00094a  2500              MOVS     r5,#0
00094c  e011              B        |L1.2418|
                  |L1.2382|
;;;743          pixs = *(unsigned short *)c;
00094e  f8b78000          LDRH     r8,[r7,#0]
;;;744          c += 2;
000952  1cbf              ADDS     r7,r7,#2
;;;745          
;;;746          for (i = 0; i < cw; i++) {
000954  2400              MOVS     r4,#0
000956  e009              B        |L1.2412|
                  |L1.2392|
;;;747            wr_dat_only (Color[(pixs >> i) & 1]);
000958  fa28f104          LSR      r1,r8,r4
00095c  f0010101          AND      r1,r1,#1
000960  4a89              LDR      r2,|L1.2952|
000962  f8320011          LDRH     r0,[r2,r1,LSL #1]
000966  f7fffffe          BL       wr_dat_only
00096a  1c64              ADDS     r4,r4,#1              ;746
                  |L1.2412|
00096c  42b4              CMP      r4,r6                 ;746
00096e  d3f3              BCC      |L1.2392|
000970  1c6d              ADDS     r5,r5,#1              ;742
                  |L1.2418|
000972  454d              CMP      r5,r9                 ;742
000974  d3eb              BCC      |L1.2382|
                  |L1.2422|
;;;748          }
;;;749        }
;;;750      }
;;;751      wr_dat_stop();
000976  f7fffffe          BL       wr_dat_stop
;;;752    }
00097a  e8bd9fff          POP      {r0-r12,pc}
;;;753    
                          ENDP

                  GLCD_DisplayChar PROC
;;;763    
;;;764    void GLCD_DisplayChar (unsigned int ln, unsigned int col, unsigned char fi, unsigned char c) {
00097e  b5f8              PUSH     {r3-r7,lr}
000980  4605              MOV      r5,r0
000982  460e              MOV      r6,r1
000984  4617              MOV      r7,r2
000986  461c              MOV      r4,r3
;;;765    
;;;766      c -= 32;
000988  f1a40020          SUB      r0,r4,#0x20
00098c  b2c4              UXTB     r4,r0
;;;767      switch (fi) {
00098e  b117              CBZ      r7,|L1.2454|
000990  2f01              CMP      r7,#1
000992  d11c              BNE      |L1.2510|
000994  e00c              B        |L1.2480|
                  |L1.2454|
;;;768        case 0:  /* Font 6 x 8 */
;;;769          GLCD_DrawChar(col *  6, ln *  8,  6,  8, (unsigned char *)&Font_6x8_h  [c * 8]);
000996  487d              LDR      r0,|L1.2956|
000998  eb0000c4          ADD      r0,r0,r4,LSL #3
00099c  00e9              LSLS     r1,r5,#3
00099e  eb060246          ADD      r2,r6,r6,LSL #1
0009a2  9000              STR      r0,[sp,#0]
0009a4  0050              LSLS     r0,r2,#1
0009a6  2308              MOVS     r3,#8
0009a8  2206              MOVS     r2,#6
0009aa  f7fffffe          BL       GLCD_DrawChar
;;;770          break;
0009ae  e00e              B        |L1.2510|
                  |L1.2480|
;;;771        case 1:  /* Font 16 x 24 */
;;;772          GLCD_DrawChar(col * 16, ln * 24, 16, 24, (unsigned char *)&Font_16x24_h[c * 24]);
0009b0  eb040044          ADD      r0,r4,r4,LSL #1
0009b4  4976              LDR      r1,|L1.2960|
0009b6  eb011000          ADD      r0,r1,r0,LSL #4
0009ba  eb050245          ADD      r2,r5,r5,LSL #1
0009be  00d1              LSLS     r1,r2,#3
0009c0  9000              STR      r0,[sp,#0]
0009c2  0130              LSLS     r0,r6,#4
0009c4  2318              MOVS     r3,#0x18
0009c6  2210              MOVS     r2,#0x10
0009c8  f7fffffe          BL       GLCD_DrawChar
;;;773          break;
0009cc  bf00              NOP      
                  |L1.2510|
0009ce  bf00              NOP                            ;770
;;;774      }
;;;775    }
0009d0  bdf8              POP      {r3-r7,pc}
;;;776    
                          ENDP

                  GLCD_DisplayString PROC
;;;786    
;;;787    void GLCD_DisplayString (unsigned int ln, unsigned int col, unsigned char fi, unsigned char *s) {
0009d2  e92d41f0          PUSH     {r4-r8,lr}
0009d6  4606              MOV      r6,r0
0009d8  460d              MOV      r5,r1
0009da  4617              MOV      r7,r2
0009dc  461c              MOV      r4,r3
;;;788    
;;;789      while (*s) {
0009de  e007              B        |L1.2544|
                  |L1.2528|
;;;790        GLCD_DisplayChar(ln, col++, fi, *s++);
0009e0  f8143b01          LDRB     r3,[r4],#1
0009e4  4629              MOV      r1,r5
0009e6  1c6d              ADDS     r5,r5,#1
0009e8  463a              MOV      r2,r7
0009ea  4630              MOV      r0,r6
0009ec  f7fffffe          BL       GLCD_DisplayChar
                  |L1.2544|
0009f0  7820              LDRB     r0,[r4,#0]            ;789
0009f2  2800              CMP      r0,#0                 ;789
0009f4  d1f4              BNE      |L1.2528|
;;;791      }
;;;792    }
0009f6  e8bd81f0          POP      {r4-r8,pc}
;;;793    
                          ENDP

                  GLCD_ClearLn PROC
;;;801    
;;;802    void GLCD_ClearLn (unsigned int ln, unsigned char fi) {
0009fa  b570              PUSH     {r4-r6,lr}
0009fc  b090              SUB      sp,sp,#0x40
0009fe  4606              MOV      r6,r0
000a00  460d              MOV      r5,r1
;;;803      unsigned char i;
;;;804      unsigned char buf[60];
;;;805    
;;;806      GLCD_WindowMax();
000a02  f7fffffe          BL       GLCD_WindowMax
;;;807      switch (fi) {
000a06  b115              CBZ      r5,|L1.2574|
000a08  2d01              CMP      r5,#1
000a0a  d11c              BNE      |L1.2630|
000a0c  e00d              B        |L1.2602|
                  |L1.2574|
;;;808        case 0:  /* Font 6 x 8 */
;;;809          for (i = 0; i < (WIDTH+5)/6; i++)
000a0e  2400              MOVS     r4,#0
000a10  e004              B        |L1.2588|
                  |L1.2578|
;;;810            buf[i] = ' ';
000a12  2020              MOVS     r0,#0x20
000a14  a901              ADD      r1,sp,#4
000a16  5508              STRB     r0,[r1,r4]
000a18  1c60              ADDS     r0,r4,#1              ;809
000a1a  b2c4              UXTB     r4,r0                 ;809
                  |L1.2588|
000a1c  2c36              CMP      r4,#0x36              ;809
000a1e  dbf8              BLT      |L1.2578|
;;;811          buf[i+1] = 0;
000a20  2100              MOVS     r1,#0
000a22  aa01              ADD      r2,sp,#4
000a24  1c60              ADDS     r0,r4,#1
000a26  5411              STRB     r1,[r2,r0]
;;;812          break;
000a28  e00d              B        |L1.2630|
                  |L1.2602|
;;;813        case 1:  /* Font 16 x 24 */
;;;814          for (i = 0; i < (WIDTH+15)/16; i++)
000a2a  2400              MOVS     r4,#0
000a2c  e004              B        |L1.2616|
                  |L1.2606|
;;;815            buf[i] = ' ';
000a2e  2020              MOVS     r0,#0x20
000a30  a901              ADD      r1,sp,#4
000a32  5508              STRB     r0,[r1,r4]
000a34  1c60              ADDS     r0,r4,#1              ;814
000a36  b2c4              UXTB     r4,r0                 ;814
                  |L1.2616|
000a38  2c14              CMP      r4,#0x14              ;814
000a3a  dbf8              BLT      |L1.2606|
;;;816          buf[i+1] = 0;
000a3c  2100              MOVS     r1,#0
000a3e  aa01              ADD      r2,sp,#4
000a40  1c60              ADDS     r0,r4,#1
000a42  5411              STRB     r1,[r2,r0]
;;;817          break;
000a44  bf00              NOP      
                  |L1.2630|
000a46  bf00              NOP                            ;812
;;;818      }
;;;819      GLCD_DisplayString (ln, 0, fi, buf);
000a48  ab01              ADD      r3,sp,#4
000a4a  462a              MOV      r2,r5
000a4c  2100              MOVS     r1,#0
000a4e  4630              MOV      r0,r6
000a50  f7fffffe          BL       GLCD_DisplayString
;;;820    }
000a54  b010              ADD      sp,sp,#0x40
000a56  bd70              POP      {r4-r6,pc}
;;;821    
                          ENDP

                  GLCD_Bargraph PROC
;;;831    
;;;832    void GLCD_Bargraph (unsigned int x, unsigned int y, unsigned int w, unsigned int h, unsigned int val) {
000a58  e92d47f0          PUSH     {r4-r10,lr}
000a5c  4681              MOV      r9,r0
000a5e  468a              MOV      r10,r1
000a60  4614              MOV      r4,r2
000a62  461e              MOV      r6,r3
000a64  9f08              LDR      r7,[sp,#0x20]
;;;833      int i,j;
;;;834    
;;;835      val = (val * w) >> 10;                /* Scale value                        */
000a66  fb07f004          MUL      r0,r7,r4
000a6a  0a87              LSRS     r7,r0,#10
;;;836      GLCD_SetWindow(x, y, w, h);
000a6c  4633              MOV      r3,r6
000a6e  4622              MOV      r2,r4
000a70  4651              MOV      r1,r10
000a72  4648              MOV      r0,r9
000a74  f7fffffe          BL       GLCD_SetWindow
;;;837      wr_cmd(0x22);
000a78  2022              MOVS     r0,#0x22
000a7a  f7fffffe          BL       wr_cmd
;;;838      wr_dat_start();
000a7e  f7fffffe          BL       wr_dat_start
;;;839      for (i = 0; i < h; i++) {
000a82  f04f0800          MOV      r8,#0
000a86  e012              B        |L1.2734|
                  |L1.2696|
;;;840        for (j = 0; j <= w-1; j++) {
000a88  2500              MOVS     r5,#0
000a8a  e00b              B        |L1.2724|
                  |L1.2700|
;;;841          if(j >= val) {
000a8c  42bd              CMP      r5,r7
000a8e  d304              BCC      |L1.2714|
;;;842            wr_dat_only(Color[BG_COLOR]);
000a90  493d              LDR      r1,|L1.2952|
000a92  8808              LDRH     r0,[r1,#0]  ; Color
000a94  f7fffffe          BL       wr_dat_only
000a98  e003              B        |L1.2722|
                  |L1.2714|
;;;843          } else {
;;;844            wr_dat_only(Color[TXT_COLOR]);
000a9a  493b              LDR      r1,|L1.2952|
000a9c  8848              LDRH     r0,[r1,#2]  ; Color
000a9e  f7fffffe          BL       wr_dat_only
                  |L1.2722|
000aa2  1c6d              ADDS     r5,r5,#1              ;840
                  |L1.2724|
000aa4  1e60              SUBS     r0,r4,#1              ;840
000aa6  42a8              CMP      r0,r5                 ;840
000aa8  d2f0              BCS      |L1.2700|
000aaa  f1080801          ADD      r8,r8,#1              ;839
                  |L1.2734|
000aae  45b0              CMP      r8,r6                 ;839
000ab0  d3ea              BCC      |L1.2696|
;;;845          }
;;;846        }
;;;847      }
;;;848      wr_dat_stop();
000ab2  f7fffffe          BL       wr_dat_stop
;;;849    }
000ab6  e8bd87f0          POP      {r4-r10,pc}
;;;850    
                          ENDP

                  GLCD_Bitmap PROC
;;;863    
;;;864    void GLCD_Bitmap (unsigned int x, unsigned int y, unsigned int w, unsigned int h, unsigned char *bitmap) {
000aba  e92d5ff0          PUSH     {r4-r12,lr}
000abe  4680              MOV      r8,r0
000ac0  4689              MOV      r9,r1
000ac2  4614              MOV      r4,r2
000ac4  461f              MOV      r7,r3
000ac6  f8dda028          LDR      r10,[sp,#0x28]
;;;865      int i, j;
;;;866      unsigned short *bitmap_ptr = (unsigned short *)bitmap;
000aca  46d3              MOV      r11,r10
;;;867    
;;;868      GLCD_SetWindow (x, y, w, h);
000acc  463b              MOV      r3,r7
000ace  4622              MOV      r2,r4
000ad0  4649              MOV      r1,r9
000ad2  4640              MOV      r0,r8
000ad4  f7fffffe          BL       GLCD_SetWindow
;;;869    
;;;870      wr_cmd(0x22);
000ad8  2022              MOVS     r0,#0x22
000ada  f7fffffe          BL       wr_cmd
;;;871      wr_dat_start();
000ade  f7fffffe          BL       wr_dat_start
;;;872      for (i = (h-1)*w; i > -1; i -= w) {
000ae2  1e78              SUBS     r0,r7,#1
000ae4  fb00f504          MUL      r5,r0,r4
000ae8  e00a              B        |L1.2816|
                  |L1.2794|
;;;873        for (j = 0; j < w; j++) {
000aea  2600              MOVS     r6,#0
000aec  e005              B        |L1.2810|
                  |L1.2798|
;;;874          wr_dat_only (bitmap_ptr[i+j]);
000aee  19a9              ADDS     r1,r5,r6
000af0  f83b0011          LDRH     r0,[r11,r1,LSL #1]
000af4  f7fffffe          BL       wr_dat_only
000af8  1c76              ADDS     r6,r6,#1              ;873
                  |L1.2810|
000afa  42a6              CMP      r6,r4                 ;873
000afc  d3f7              BCC      |L1.2798|
000afe  1b2d              SUBS     r5,r5,r4              ;872
                  |L1.2816|
000b00  2d00              CMP      r5,#0                 ;872
000b02  daf2              BGE      |L1.2794|
;;;875        }
;;;876      }
;;;877      wr_dat_stop();
000b04  f7fffffe          BL       wr_dat_stop
;;;878    }
000b08  e8bd9ff0          POP      {r4-r12,pc}
;;;879    
                          ENDP

                  GLCD_ScrollVertical PROC
;;;887    
;;;888    void GLCD_ScrollVertical (unsigned int dy) {
000b0c  4770              BX       lr
;;;889    #if (LANDSCAPE == 0)
;;;890      static unsigned int y = 0;
;;;891    
;;;892      y = y + dy;
;;;893      while (y >= HEIGHT)
;;;894        y -= HEIGHT;
;;;895    
;;;896      if (Himax) {
;;;897        wr_reg(0x01, 0x08);
;;;898        wr_reg(0x14, y>>8);                 /* VSP MSB                            */
;;;899        wr_reg(0x15, y&0xFF);               /* VSP LSB                            */
;;;900      }
;;;901      else {
;;;902        wr_reg(0x6A, y);
;;;903        wr_reg(0x61, 3);
;;;904      }
;;;905    #endif
;;;906    }
;;;907    
                          ENDP

                  GLCD_WrCmd PROC
;;;913    *******************************************************************************/
;;;914    void GLCD_WrCmd (unsigned char cmd) {
000b0e  b510              PUSH     {r4,lr}
000b10  4604              MOV      r4,r0
;;;915      wr_cmd (cmd);
000b12  4620              MOV      r0,r4
000b14  f7fffffe          BL       wr_cmd
;;;916    }
000b18  bd10              POP      {r4,pc}
;;;917    
                          ENDP

                  GLCD_WrReg PROC
;;;924    *******************************************************************************/
;;;925    void GLCD_WrReg (unsigned char reg, unsigned short val) {
000b1a  b570              PUSH     {r4-r6,lr}
000b1c  4604              MOV      r4,r0
000b1e  460d              MOV      r5,r1
;;;926      wr_reg (reg, val);
000b20  4629              MOV      r1,r5
000b22  4620              MOV      r0,r4
000b24  f7fffffe          BL       wr_reg
;;;927    }
000b28  bd70              POP      {r4-r6,pc}
;;;928    /******************************************************************************/
                          ENDP

                  spi_tran PROC
;;;140    
;;;141    static __inline unsigned char spi_tran (unsigned char byte) {
000b2a  4601              MOV      r1,r0
;;;142    
;;;143      LPC_SSP1->DR = byte;
000b2c  4819              LDR      r0,|L1.2964|
000b2e  6081              STR      r1,[r0,#8]
;;;144      while (!(LPC_SSP1->SR & RNE));        /* Wait for send to finish            */
000b30  bf00              NOP      
                  |L1.2866|
000b32  4818              LDR      r0,|L1.2964|
000b34  68c0              LDR      r0,[r0,#0xc]
000b36  f0000004          AND      r0,r0,#4
000b3a  2800              CMP      r0,#0
000b3c  d0f9              BEQ      |L1.2866|
;;;145      return (LPC_SSP1->DR);
000b3e  4815              LDR      r0,|L1.2964|
000b40  6880              LDR      r0,[r0,#8]
000b42  b2c0              UXTB     r0,r0
;;;146    }
000b44  4770              BX       lr
;;;147    
                          ENDP

                  wr_dat_start PROC
;;;184    
;;;185    static __inline void wr_dat_start (void) {
000b46  b510              PUSH     {r4,lr}
;;;186      LCD_CS(0);
000b48  2040              MOVS     r0,#0x40
000b4a  4913              LDR      r1,|L1.2968|
000b4c  61c8              STR      r0,[r1,#0x1c]
;;;187      spi_tran(SPI_START | SPI_WR | SPI_DATA);    /* Write : RS = 1, RW = 0       */
000b4e  2072              MOVS     r0,#0x72
000b50  f7fffffe          BL       spi_tran
;;;188    }
000b54  bd10              POP      {r4,pc}
;;;189    
                          ENDP

                  wr_dat_stop PROC
;;;196    
;;;197    static __inline void wr_dat_stop (void) {
000b56  2040              MOVS     r0,#0x40
;;;198    
;;;199      LCD_CS(1);
000b58  490f              LDR      r1,|L1.2968|
000b5a  6188              STR      r0,[r1,#0x18]
;;;200    }
000b5c  4770              BX       lr
;;;201    
                          ENDP

                  wr_dat_only PROC
;;;208    
;;;209    static __inline void wr_dat_only (unsigned short dat) {
000b5e  b510              PUSH     {r4,lr}
000b60  4604              MOV      r4,r0
;;;210    
;;;211      spi_tran((dat >>   8));                     /* Write D8..D15                */
000b62  1220              ASRS     r0,r4,#8
000b64  f7fffffe          BL       spi_tran
;;;212      spi_tran((dat & 0xFF));                     /* Write D0..D7                 */
000b68  b2e0              UXTB     r0,r4
000b6a  f7fffffe          BL       spi_tran
;;;213    }
000b6e  bd10              POP      {r4,pc}
;;;214    
                          ENDP

                  wr_reg PROC
;;;241    
;;;242    static __inline void wr_reg (unsigned char reg, unsigned short val) {
000b70  b570              PUSH     {r4-r6,lr}
000b72  4605              MOV      r5,r0
000b74  460c              MOV      r4,r1
;;;243    
;;;244      wr_cmd(reg);
000b76  4628              MOV      r0,r5
000b78  f7fffffe          BL       wr_cmd
;;;245      wr_dat(val);
000b7c  4620              MOV      r0,r4
000b7e  f7fffffe          BL       wr_dat
;;;246    }
000b82  bd70              POP      {r4-r6,pc}
;;;247    
                          ENDP

                  |L1.2948|
                          DCD      Himax
                  |L1.2952|
                          DCD      Color
                  |L1.2956|
                          DCD      Font_6x8_h
                  |L1.2960|
                          DCD      Font_16x24_h
                  |L1.2964|
                          DCD      0x40030000
                  |L1.2968|
                          DCD      0x2009c000

                          AREA ||.constdata||, DATA, READONLY, ALIGN=1

                  Font_6x8_h
000000  00000000          DCB      0x00,0x00,0x00,0x00
000004  00000000          DCB      0x00,0x00,0x00,0x00
000008  04040404          DCB      0x04,0x04,0x04,0x04
00000c  04000400          DCB      0x04,0x00,0x04,0x00
000010  0a0a0a00          DCB      0x0a,0x0a,0x0a,0x00
000014  00000000          DCB      0x00,0x00,0x00,0x00
000018  0a0a1f0a          DCB      0x0a,0x0a,0x1f,0x0a
00001c  1f0a0a00          DCB      0x1f,0x0a,0x0a,0x00
000020  041e050e          DCB      0x04,0x1e,0x05,0x0e
000024  140f0400          DCB      0x14,0x0f,0x04,0x00
000028  03130804          DCB      0x03,0x13,0x08,0x04
00002c  02191800          DCB      0x02,0x19,0x18,0x00
000030  02050502          DCB      0x02,0x05,0x05,0x02
000034  15091600          DCB      0x15,0x09,0x16,0x00
000038  0c0c0402          DCB      0x0c,0x0c,0x04,0x02
00003c  00000000          DCB      0x00,0x00,0x00,0x00
000040  08040202          DCB      0x08,0x04,0x02,0x02
000044  02040800          DCB      0x02,0x04,0x08,0x00
000048  02040808          DCB      0x02,0x04,0x08,0x08
00004c  08040200          DCB      0x08,0x04,0x02,0x00
000050  0004150e          DCB      0x00,0x04,0x15,0x0e
000054  0e150400          DCB      0x0e,0x15,0x04,0x00
000058  0004041f          DCB      0x00,0x04,0x04,0x1f
00005c  04040000          DCB      0x04,0x04,0x00,0x00
000060  00000000          DCB      0x00,0x00,0x00,0x00
000064  0c0c0402          DCB      0x0c,0x0c,0x04,0x02
000068  0000001f          DCB      0x00,0x00,0x00,0x1f
00006c  00000000          DCB      0x00,0x00,0x00,0x00
000070  00000000          DCB      0x00,0x00,0x00,0x00
000074  000c0c00          DCB      0x00,0x0c,0x0c,0x00
000078  00100804          DCB      0x00,0x10,0x08,0x04
00007c  02010000          DCB      0x02,0x01,0x00,0x00
000080  0e111315          DCB      0x0e,0x11,0x13,0x15
000084  19110e00          DCB      0x19,0x11,0x0e,0x00
000088  04060404          DCB      0x04,0x06,0x04,0x04
00008c  04040e00          DCB      0x04,0x04,0x0e,0x00
000090  0e11100e          DCB      0x0e,0x11,0x10,0x0e
000094  01011f00          DCB      0x01,0x01,0x1f,0x00
000098  1f10080c          DCB      0x1f,0x10,0x08,0x0c
00009c  10110e00          DCB      0x10,0x11,0x0e,0x00
0000a0  080c0a09          DCB      0x08,0x0c,0x0a,0x09
0000a4  1f080800          DCB      0x1f,0x08,0x08,0x00
0000a8  1f010f10          DCB      0x1f,0x01,0x0f,0x10
0000ac  10110e00          DCB      0x10,0x11,0x0e,0x00
0000b0  1c02010f          DCB      0x1c,0x02,0x01,0x0f
0000b4  11110e00          DCB      0x11,0x11,0x0e,0x00
0000b8  1f101008          DCB      0x1f,0x10,0x10,0x08
0000bc  04020100          DCB      0x04,0x02,0x01,0x00
0000c0  0e11110e          DCB      0x0e,0x11,0x11,0x0e
0000c4  11110e00          DCB      0x11,0x11,0x0e,0x00
0000c8  0e11111e          DCB      0x0e,0x11,0x11,0x1e
0000cc  10080700          DCB      0x10,0x08,0x07,0x00
0000d0  00000400          DCB      0x00,0x00,0x04,0x00
0000d4  04000000          DCB      0x04,0x00,0x00,0x00
0000d8  00000400          DCB      0x00,0x00,0x04,0x00
0000dc  04040200          DCB      0x04,0x04,0x02,0x00
0000e0  10080402          DCB      0x10,0x08,0x04,0x02
0000e4  04081000          DCB      0x04,0x08,0x10,0x00
0000e8  00001f00          DCB      0x00,0x00,0x1f,0x00
0000ec  1f000000          DCB      0x1f,0x00,0x00,0x00
0000f0  02040810          DCB      0x02,0x04,0x08,0x10
0000f4  08040200          DCB      0x08,0x04,0x02,0x00
0000f8  0e11100c          DCB      0x0e,0x11,0x10,0x0c
0000fc  04000400          DCB      0x04,0x00,0x04,0x00
000100  0e11151d          DCB      0x0e,0x11,0x15,0x1d
000104  0d011e00          DCB      0x0d,0x01,0x1e,0x00
000108  040a1111          DCB      0x04,0x0a,0x11,0x11
00010c  1f111100          DCB      0x1f,0x11,0x11,0x00
000110  0f11110f          DCB      0x0f,0x11,0x11,0x0f
000114  11110f00          DCB      0x11,0x11,0x0f,0x00
000118  0e110101          DCB      0x0e,0x11,0x01,0x01
00011c  01110e00          DCB      0x01,0x11,0x0e,0x00
000120  0f111111          DCB      0x0f,0x11,0x11,0x11
000124  11110f00          DCB      0x11,0x11,0x0f,0x00
000128  1f01010f          DCB      0x1f,0x01,0x01,0x0f
00012c  01011f00          DCB      0x01,0x01,0x1f,0x00
000130  1f01010f          DCB      0x1f,0x01,0x01,0x0f
000134  01010100          DCB      0x01,0x01,0x01,0x00
000138  1e110101          DCB      0x1e,0x11,0x01,0x01
00013c  19111e00          DCB      0x19,0x11,0x1e,0x00
000140  1111111f          DCB      0x11,0x11,0x11,0x1f
000144  11111100          DCB      0x11,0x11,0x11,0x00
000148  0e040404          DCB      0x0e,0x04,0x04,0x04
00014c  04040e00          DCB      0x04,0x04,0x0e,0x00
000150  1c080808          DCB      0x1c,0x08,0x08,0x08
000154  08090600          DCB      0x08,0x09,0x06,0x00
000158  11090503          DCB      0x11,0x09,0x05,0x03
00015c  05091100          DCB      0x05,0x09,0x11,0x00
000160  01010101          DCB      0x01,0x01,0x01,0x01
000164  01011f00          DCB      0x01,0x01,0x1f,0x00
000168  111b1515          DCB      0x11,0x1b,0x15,0x15
00016c  15111100          DCB      0x15,0x11,0x11,0x00
000170  11111315          DCB      0x11,0x11,0x13,0x15
000174  19111100          DCB      0x19,0x11,0x11,0x00
000178  0e111111          DCB      0x0e,0x11,0x11,0x11
00017c  11110e00          DCB      0x11,0x11,0x0e,0x00
000180  0f11110f          DCB      0x0f,0x11,0x11,0x0f
000184  01010100          DCB      0x01,0x01,0x01,0x00
000188  0e111111          DCB      0x0e,0x11,0x11,0x11
00018c  15091600          DCB      0x15,0x09,0x16,0x00
000190  0f11110f          DCB      0x0f,0x11,0x11,0x0f
000194  05091100          DCB      0x05,0x09,0x11,0x00
000198  0e11010e          DCB      0x0e,0x11,0x01,0x0e
00019c  10110e00          DCB      0x10,0x11,0x0e,0x00
0001a0  1f150404          DCB      0x1f,0x15,0x04,0x04
0001a4  04040400          DCB      0x04,0x04,0x04,0x00
0001a8  11111111          DCB      0x11,0x11,0x11,0x11
0001ac  11110e00          DCB      0x11,0x11,0x0e,0x00
0001b0  11111111          DCB      0x11,0x11,0x11,0x11
0001b4  110a0400          DCB      0x11,0x0a,0x04,0x00
0001b8  11111115          DCB      0x11,0x11,0x11,0x15
0001bc  15150a00          DCB      0x15,0x15,0x0a,0x00
0001c0  11110a04          DCB      0x11,0x11,0x0a,0x04
0001c4  0a111100          DCB      0x0a,0x11,0x11,0x00
0001c8  11110a04          DCB      0x11,0x11,0x0a,0x04
0001cc  04040400          DCB      0x04,0x04,0x04,0x00
0001d0  1f10080e          DCB      0x1f,0x10,0x08,0x0e
0001d4  02011f00          DCB      0x02,0x01,0x1f,0x00
0001d8  1e020202          DCB      0x1e,0x02,0x02,0x02
0001dc  02021e00          DCB      0x02,0x02,0x1e,0x00
0001e0  00010204          DCB      0x00,0x01,0x02,0x04
0001e4  08100000          DCB      0x08,0x10,0x00,0x00
0001e8  1e101010          DCB      0x1e,0x10,0x10,0x10
0001ec  10101e00          DCB      0x10,0x10,0x1e,0x00
0001f0  040a1100          DCB      0x04,0x0a,0x11,0x00
0001f4  00000000          DCB      0x00,0x00,0x00,0x00
0001f8  00000000          DCB      0x00,0x00,0x00,0x00
0001fc  00001f00          DCB      0x00,0x00,0x1f,0x00
000200  06060408          DCB      0x06,0x06,0x04,0x08
000204  00000000          DCB      0x00,0x00,0x00,0x00
000208  00000608          DCB      0x00,0x00,0x06,0x08
00020c  0e091e00          DCB      0x0e,0x09,0x1e,0x00
000210  01010d13          DCB      0x01,0x01,0x0d,0x13
000214  11130d00          DCB      0x11,0x13,0x0d,0x00
000218  00000e11          DCB      0x00,0x00,0x0e,0x11
00021c  01110e00          DCB      0x01,0x11,0x0e,0x00
000220  10101619          DCB      0x10,0x10,0x16,0x19
000224  11191600          DCB      0x11,0x19,0x16,0x00
000228  00000e11          DCB      0x00,0x00,0x0e,0x11
00022c  1f010e00          DCB      0x1f,0x01,0x0e,0x00
000230  0814040e          DCB      0x08,0x14,0x04,0x0e
000234  04040400          DCB      0x04,0x04,0x04,0x00
000238  00000e19          DCB      0x00,0x00,0x0e,0x19
00023c  1916100e          DCB      0x19,0x16,0x10,0x0e
000240  01010d13          DCB      0x01,0x01,0x0d,0x13
000244  11111100          DCB      0x11,0x11,0x11,0x00
000248  04000604          DCB      0x04,0x00,0x06,0x04
00024c  04040e00          DCB      0x04,0x04,0x0e,0x00
000250  08000808          DCB      0x08,0x00,0x08,0x08
000254  08090600          DCB      0x08,0x09,0x06,0x00
000258  01010905          DCB      0x01,0x01,0x09,0x05
00025c  03050900          DCB      0x03,0x05,0x09,0x00
000260  06040404          DCB      0x06,0x04,0x04,0x04
000264  04040e00          DCB      0x04,0x04,0x0e,0x00
000268  00000b15          DCB      0x00,0x00,0x0b,0x15
00026c  15151500          DCB      0x15,0x15,0x15,0x00
000270  00000d13          DCB      0x00,0x00,0x0d,0x13
000274  11111100          DCB      0x11,0x11,0x11,0x00
000278  00000e11          DCB      0x00,0x00,0x0e,0x11
00027c  11110e00          DCB      0x11,0x11,0x0e,0x00
000280  00000d13          DCB      0x00,0x00,0x0d,0x13
000284  130d0101          DCB      0x13,0x0d,0x01,0x01
000288  00001619          DCB      0x00,0x00,0x16,0x19
00028c  19161010          DCB      0x19,0x16,0x10,0x10
000290  00000d13          DCB      0x00,0x00,0x0d,0x13
000294  01010100          DCB      0x01,0x01,0x01,0x00
000298  00001e01          DCB      0x00,0x00,0x1e,0x01
00029c  0e100f00          DCB      0x0e,0x10,0x0f,0x00
0002a0  04041f04          DCB      0x04,0x04,0x1f,0x04
0002a4  04140800          DCB      0x04,0x14,0x08,0x00
0002a8  00001111          DCB      0x00,0x00,0x11,0x11
0002ac  11191600          DCB      0x11,0x19,0x16,0x00
0002b0  00001111          DCB      0x00,0x00,0x11,0x11
0002b4  110a0400          DCB      0x11,0x0a,0x04,0x00
0002b8  00001111          DCB      0x00,0x00,0x11,0x11
0002bc  15150a00          DCB      0x15,0x15,0x0a,0x00
0002c0  0000110a          DCB      0x00,0x00,0x11,0x0a
0002c4  040a1100          DCB      0x04,0x0a,0x11,0x00
0002c8  00001111          DCB      0x00,0x00,0x11,0x11
0002cc  1e10110e          DCB      0x1e,0x10,0x11,0x0e
0002d0  00001f08          DCB      0x00,0x00,0x1f,0x08
0002d4  04021f00          DCB      0x04,0x02,0x1f,0x00
0002d8  08040402          DCB      0x08,0x04,0x04,0x02
0002dc  04040800          DCB      0x04,0x04,0x08,0x00
0002e0  04040400          DCB      0x04,0x04,0x04,0x00
0002e4  04040400          DCB      0x04,0x04,0x04,0x00
0002e8  02040408          DCB      0x02,0x04,0x04,0x08
0002ec  04040200          DCB      0x04,0x04,0x02,0x00
0002f0  02150800          DCB      0x02,0x15,0x08,0x00
0002f4  00000000          DCB      0x00,0x00,0x00,0x00
0002f8  00000000          DCB      0x00,0x00,0x00,0x00
0002fc  00000000          DCB      0x00,0x00,0x00,0x00
000300  00000c12          DCB      0x00,0x00,0x0c,0x12
000304  120c0000          DCB      0x12,0x0c,0x00,0x00
000308  00000c1e          DCB      0x00,0x00,0x0c,0x1e
00030c  1e0c0000          DCB      0x1e,0x0c,0x00,0x00
000310  00001e12          DCB      0x00,0x00,0x1e,0x12
000314  121e0000          DCB      0x12,0x1e,0x00,0x00
000318  00001e1e          DCB      0x00,0x00,0x1e,0x1e
00031c  1e1e0000          DCB      0x1e,0x1e,0x00,0x00
000320  00000c0c          DCB      0x00,0x00,0x0c,0x0c
000324  121e0000          DCB      0x12,0x1e,0x00,0x00
000328  00000c0c          DCB      0x00,0x00,0x0c,0x0c
00032c  1e1e0000          DCB      0x1e,0x1e,0x00,0x00
000330  00001e12          DCB      0x00,0x00,0x1e,0x12
000334  0c0c0000          DCB      0x0c,0x0c,0x00,0x00
000338  00001e1e          DCB      0x00,0x00,0x1e,0x1e
00033c  0c0c0000          DCB      0x0c,0x0c,0x00,0x00
000340  00001816          DCB      0x00,0x00,0x18,0x16
000344  16180000          DCB      0x16,0x18,0x00,0x00
000348  0000181e          DCB      0x00,0x00,0x18,0x1e
00034c  1e180000          DCB      0x1e,0x18,0x00,0x00
000350  0000061a          DCB      0x00,0x00,0x06,0x1a
000354  1a060000          DCB      0x1a,0x06,0x00,0x00
000358  0000061e          DCB      0x00,0x00,0x06,0x1e
00035c  1e060000          DCB      0x1e,0x06,0x00,0x00
000360  00000c12          DCB      0x00,0x00,0x0c,0x12
000364  120c0000          DCB      0x12,0x0c,0x00,0x00
000368  00000c1e          DCB      0x00,0x00,0x0c,0x1e
00036c  1e0c0000          DCB      0x1e,0x0c,0x00,0x00
000370  00001e12          DCB      0x00,0x00,0x1e,0x12
000374  121e0000          DCB      0x12,0x1e,0x00,0x00
000378  00001e1e          DCB      0x00,0x00,0x1e,0x1e
00037c  1e1e0000          DCB      0x1e,0x1e,0x00,0x00
                  Font_16x24_h
000380  00000000          DCW      0x0000,0x0000
000384  00000000          DCW      0x0000,0x0000
000388  00000000          DCW      0x0000,0x0000
00038c  00000000          DCW      0x0000,0x0000
000390  00000000          DCW      0x0000,0x0000
000394  00000000          DCW      0x0000,0x0000
000398  00000000          DCW      0x0000,0x0000
00039c  00000000          DCW      0x0000,0x0000
0003a0  00000000          DCW      0x0000,0x0000
0003a4  00000000          DCW      0x0000,0x0000
0003a8  00000000          DCW      0x0000,0x0000
0003ac  00000000          DCW      0x0000,0x0000
0003b0  00000180          DCW      0x0000,0x0180
0003b4  01800180          DCW      0x0180,0x0180
0003b8  01800180          DCW      0x0180,0x0180
0003bc  01800180          DCW      0x0180,0x0180
0003c0  01800180          DCW      0x0180,0x0180
0003c4  01800180          DCW      0x0180,0x0180
0003c8  01800180          DCW      0x0180,0x0180
0003cc  00000000          DCW      0x0000,0x0000
0003d0  01800180          DCW      0x0180,0x0180
0003d4  00000000          DCW      0x0000,0x0000
0003d8  00000000          DCW      0x0000,0x0000
0003dc  00000000          DCW      0x0000,0x0000
0003e0  00000000          DCW      0x0000,0x0000
0003e4  00cc00cc          DCW      0x00cc,0x00cc
0003e8  00cc00cc          DCW      0x00cc,0x00cc
0003ec  00cc00cc          DCW      0x00cc,0x00cc
0003f0  00000000          DCW      0x0000,0x0000
0003f4  00000000          DCW      0x0000,0x0000
0003f8  00000000          DCW      0x0000,0x0000
0003fc  00000000          DCW      0x0000,0x0000
000400  00000000          DCW      0x0000,0x0000
000404  00000000          DCW      0x0000,0x0000
000408  00000000          DCW      0x0000,0x0000
00040c  00000000          DCW      0x0000,0x0000
000410  00000000          DCW      0x0000,0x0000
000414  00000000          DCW      0x0000,0x0000
000418  00000000          DCW      0x0000,0x0000
00041c  0c600c60          DCW      0x0c60,0x0c60
000420  0c600630          DCW      0x0c60,0x0630
000424  06301ffe          DCW      0x0630,0x1ffe
000428  1ffe0630          DCW      0x1ffe,0x0630
00042c  07380318          DCW      0x0738,0x0318
000430  1ffe1ffe          DCW      0x1ffe,0x1ffe
000434  03180318          DCW      0x0318,0x0318
000438  018c018c          DCW      0x018c,0x018c
00043c  018c0000          DCW      0x018c,0x0000
000440  00000080          DCW      0x0000,0x0080
000444  03e00ff8          DCW      0x03e0,0x0ff8
000448  0e9c1c8c          DCW      0x0e9c,0x1c8c
00044c  188c008c          DCW      0x188c,0x008c
000450  009801f8          DCW      0x0098,0x01f8
000454  07e00e80          DCW      0x07e0,0x0e80
000458  1c80188c          DCW      0x1c80,0x188c
00045c  188c189c          DCW      0x188c,0x189c
000460  0cb80ff0          DCW      0x0cb8,0x0ff0
000464  03e00080          DCW      0x03e0,0x0080
000468  00800000          DCW      0x0080,0x0000
00046c  00000000          DCW      0x0000,0x0000
000470  00000000          DCW      0x0000,0x0000
000474  0000180e          DCW      0x0000,0x180e
000478  0c1b0c11          DCW      0x0c1b,0x0c11
00047c  06110611          DCW      0x0611,0x0611
000480  03110311          DCW      0x0311,0x0311
000484  019b018e          DCW      0x019b,0x018e
000488  38c06cc0          DCW      0x38c0,0x6cc0
00048c  44604460          DCW      0x4460,0x4460
000490  44304430          DCW      0x4430,0x4430
000494  44186c18          DCW      0x4418,0x6c18
000498  380c0000          DCW      0x380c,0x0000
00049c  00000000          DCW      0x0000,0x0000
0004a0  000001e0          DCW      0x0000,0x01e0
0004a4  03f00738          DCW      0x03f0,0x0738
0004a8  06180618          DCW      0x0618,0x0618
0004ac  033001f0          DCW      0x0330,0x01f0
0004b0  00f000f8          DCW      0x00f0,0x00f8
0004b4  319c330e          DCW      0x319c,0x330e
0004b8  1e061c06          DCW      0x1e06,0x1c06
0004bc  1c063f06          DCW      0x1c06,0x3f06
0004c0  73fc21f0          DCW      0x73fc,0x21f0
0004c4  00000000          DCW      0x0000,0x0000
0004c8  00000000          DCW      0x0000,0x0000
0004cc  00000000          DCW      0x0000,0x0000
0004d0  00000000          DCW      0x0000,0x0000
0004d4  000c000c          DCW      0x000c,0x000c
0004d8  000c000c          DCW      0x000c,0x000c
0004dc  000c000c          DCW      0x000c,0x000c
0004e0  00000000          DCW      0x0000,0x0000
0004e4  00000000          DCW      0x0000,0x0000
0004e8  00000000          DCW      0x0000,0x0000
0004ec  00000000          DCW      0x0000,0x0000
0004f0  00000000          DCW      0x0000,0x0000
0004f4  00000000          DCW      0x0000,0x0000
0004f8  00000000          DCW      0x0000,0x0000
0004fc  00000000          DCW      0x0000,0x0000
000500  00000200          DCW      0x0000,0x0200
000504  03000180          DCW      0x0300,0x0180
000508  00c000c0          DCW      0x00c0,0x00c0
00050c  00600060          DCW      0x0060,0x0060
000510  00300030          DCW      0x0030,0x0030
000514  00300030          DCW      0x0030,0x0030
000518  00300030          DCW      0x0030,0x0030
00051c  00300030          DCW      0x0030,0x0030
000520  00600060          DCW      0x0060,0x0060
000524  00c000c0          DCW      0x00c0,0x00c0
000528  01800300          DCW      0x0180,0x0300
00052c  02000000          DCW      0x0200,0x0000
000530  00000020          DCW      0x0000,0x0020
000534  006000c0          DCW      0x0060,0x00c0
000538  01800180          DCW      0x0180,0x0180
00053c  03000300          DCW      0x0300,0x0300
000540  06000600          DCW      0x0600,0x0600
000544  06000600          DCW      0x0600,0x0600
000548  06000600          DCW      0x0600,0x0600
00054c  06000600          DCW      0x0600,0x0600
000550  03000300          DCW      0x0300,0x0300
000554  01800180          DCW      0x0180,0x0180
000558  00c00060          DCW      0x00c0,0x0060
00055c  00200000          DCW      0x0020,0x0000
000560  00000000          DCW      0x0000,0x0000
000564  00000000          DCW      0x0000,0x0000
000568  00000000          DCW      0x0000,0x0000
00056c  00c000c0          DCW      0x00c0,0x00c0
000570  06d807f8          DCW      0x06d8,0x07f8
000574  01e00330          DCW      0x01e0,0x0330
000578  07380000          DCW      0x0738,0x0000
00057c  00000000          DCW      0x0000,0x0000
000580  00000000          DCW      0x0000,0x0000
000584  00000000          DCW      0x0000,0x0000
000588  00000000          DCW      0x0000,0x0000
00058c  00000000          DCW      0x0000,0x0000
000590  00000000          DCW      0x0000,0x0000
000594  00000000          DCW      0x0000,0x0000
000598  00000000          DCW      0x0000,0x0000
00059c  01800180          DCW      0x0180,0x0180
0005a0  01800180          DCW      0x0180,0x0180
0005a4  01803ffc          DCW      0x0180,0x3ffc
0005a8  3ffc0180          DCW      0x3ffc,0x0180
0005ac  01800180          DCW      0x0180,0x0180
0005b0  01800180          DCW      0x0180,0x0180
0005b4  00000000          DCW      0x0000,0x0000
0005b8  00000000          DCW      0x0000,0x0000
0005bc  00000000          DCW      0x0000,0x0000
0005c0  00000000          DCW      0x0000,0x0000
0005c4  00000000          DCW      0x0000,0x0000
0005c8  00000000          DCW      0x0000,0x0000
0005cc  00000000          DCW      0x0000,0x0000
0005d0  00000000          DCW      0x0000,0x0000
0005d4  00000000          DCW      0x0000,0x0000
0005d8  00000000          DCW      0x0000,0x0000
0005dc  00000000          DCW      0x0000,0x0000
0005e0  00000180          DCW      0x0000,0x0180
0005e4  01800100          DCW      0x0180,0x0100
0005e8  01000080          DCW      0x0100,0x0080
0005ec  00000000          DCW      0x0000,0x0000
0005f0  00000000          DCW      0x0000,0x0000
0005f4  00000000          DCW      0x0000,0x0000
0005f8  00000000          DCW      0x0000,0x0000
0005fc  00000000          DCW      0x0000,0x0000
000600  00000000          DCW      0x0000,0x0000
000604  00000000          DCW      0x0000,0x0000
000608  07e007e0          DCW      0x07e0,0x07e0
00060c  00000000          DCW      0x0000,0x0000
000610  00000000          DCW      0x0000,0x0000
000614  00000000          DCW      0x0000,0x0000
000618  00000000          DCW      0x0000,0x0000
00061c  00000000          DCW      0x0000,0x0000
000620  00000000          DCW      0x0000,0x0000
000624  00000000          DCW      0x0000,0x0000
000628  00000000          DCW      0x0000,0x0000
00062c  00000000          DCW      0x0000,0x0000
000630  00000000          DCW      0x0000,0x0000
000634  00000000          DCW      0x0000,0x0000
000638  00000000          DCW      0x0000,0x0000
00063c  00000000          DCW      0x0000,0x0000
000640  000000c0          DCW      0x0000,0x00c0
000644  00c00000          DCW      0x00c0,0x0000
000648  00000000          DCW      0x0000,0x0000
00064c  00000000          DCW      0x0000,0x0000
000650  00000c00          DCW      0x0000,0x0c00
000654  0c000600          DCW      0x0c00,0x0600
000658  06000600          DCW      0x0600,0x0600
00065c  03000300          DCW      0x0300,0x0300
000660  03000380          DCW      0x0300,0x0380
000664  01800180          DCW      0x0180,0x0180
000668  018000c0          DCW      0x0180,0x00c0
00066c  00c000c0          DCW      0x00c0,0x00c0
000670  00600060          DCW      0x0060,0x0060
000674  00000000          DCW      0x0000,0x0000
000678  00000000          DCW      0x0000,0x0000
00067c  00000000          DCW      0x0000,0x0000
000680  000003e0          DCW      0x0000,0x03e0
000684  07f00e38          DCW      0x07f0,0x0e38
000688  0c18180c          DCW      0x0c18,0x180c
00068c  180c180c          DCW      0x180c,0x180c
000690  180c180c          DCW      0x180c,0x180c
000694  180c180c          DCW      0x180c,0x180c
000698  180c180c          DCW      0x180c,0x180c
00069c  0c180e38          DCW      0x0c18,0x0e38
0006a0  07f003e0          DCW      0x07f0,0x03e0
0006a4  00000000          DCW      0x0000,0x0000
0006a8  00000000          DCW      0x0000,0x0000
0006ac  00000000          DCW      0x0000,0x0000
0006b0  00000100          DCW      0x0000,0x0100
0006b4  018001c0          DCW      0x0180,0x01c0
0006b8  01f00198          DCW      0x01f0,0x0198
0006bc  01880180          DCW      0x0188,0x0180
0006c0  01800180          DCW      0x0180,0x0180
0006c4  01800180          DCW      0x0180,0x0180
0006c8  01800180          DCW      0x0180,0x0180
0006cc  01800180          DCW      0x0180,0x0180
0006d0  01800180          DCW      0x0180,0x0180
0006d4  00000000          DCW      0x0000,0x0000
0006d8  00000000          DCW      0x0000,0x0000
0006dc  00000000          DCW      0x0000,0x0000
0006e0  000003e0          DCW      0x0000,0x03e0
0006e4  0ff80c18          DCW      0x0ff8,0x0c18
0006e8  180c180c          DCW      0x180c,0x180c
0006ec  18001800          DCW      0x1800,0x1800
0006f0  0c000600          DCW      0x0c00,0x0600
0006f4  03000180          DCW      0x0300,0x0180
0006f8  00c00060          DCW      0x00c0,0x0060
0006fc  00300018          DCW      0x0030,0x0018
000700  1ffc1ffc          DCW      0x1ffc,0x1ffc
000704  00000000          DCW      0x0000,0x0000
000708  00000000          DCW      0x0000,0x0000
00070c  00000000          DCW      0x0000,0x0000
000710  000001e0          DCW      0x0000,0x01e0
000714  07f80e18          DCW      0x07f8,0x0e18
000718  0c0c0c0c          DCW      0x0c0c,0x0c0c
00071c  0c000600          DCW      0x0c00,0x0600
000720  03c007c0          DCW      0x03c0,0x07c0
000724  0c001800          DCW      0x0c00,0x1800
000728  1800180c          DCW      0x1800,0x180c
00072c  180c0c18          DCW      0x180c,0x0c18
000730  07f803e0          DCW      0x07f8,0x03e0
000734  00000000          DCW      0x0000,0x0000
000738  00000000          DCW      0x0000,0x0000
00073c  00000000          DCW      0x0000,0x0000
000740  00000c00          DCW      0x0000,0x0c00
000744  0e000f00          DCW      0x0e00,0x0f00
000748  0f000d80          DCW      0x0f00,0x0d80
00074c  0cc00c60          DCW      0x0cc0,0x0c60
000750  0c600c30          DCW      0x0c60,0x0c30
000754  0c180c0c          DCW      0x0c18,0x0c0c
000758  3ffc3ffc          DCW      0x3ffc,0x3ffc
00075c  0c000c00          DCW      0x0c00,0x0c00
000760  0c000c00          DCW      0x0c00,0x0c00
000764  00000000          DCW      0x0000,0x0000
000768  00000000          DCW      0x0000,0x0000
00076c  00000000          DCW      0x0000,0x0000
000770  00000ff8          DCW      0x0000,0x0ff8
000774  0ff80018          DCW      0x0ff8,0x0018
000778  0018000c          DCW      0x0018,0x000c
00077c  03ec07fc          DCW      0x03ec,0x07fc
000780  0e1c1c00          DCW      0x0e1c,0x1c00
000784  18001800          DCW      0x1800,0x1800
000788  1800180c          DCW      0x1800,0x180c
00078c  0c1c0e18          DCW      0x0c1c,0x0e18
000790  07f803e0          DCW      0x07f8,0x03e0
000794  00000000          DCW      0x0000,0x0000
000798  00000000          DCW      0x0000,0x0000
00079c  00000000          DCW      0x0000,0x0000
0007a0  000007c0          DCW      0x0000,0x07c0
0007a4  0ff01c38          DCW      0x0ff0,0x1c38
0007a8  18180018          DCW      0x1818,0x0018
0007ac  000c03cc          DCW      0x000c,0x03cc
0007b0  0fec0e3c          DCW      0x0fec,0x0e3c
0007b4  1c1c180c          DCW      0x1c1c,0x180c
0007b8  180c180c          DCW      0x180c,0x180c
0007bc  1c180e38          DCW      0x1c18,0x0e38
0007c0  07f003e0          DCW      0x07f0,0x03e0
0007c4  00000000          DCW      0x0000,0x0000
0007c8  00000000          DCW      0x0000,0x0000
0007cc  00000000          DCW      0x0000,0x0000
0007d0  00001ffc          DCW      0x0000,0x1ffc
0007d4  1ffc0c00          DCW      0x1ffc,0x0c00
0007d8  06000600          DCW      0x0600,0x0600
0007dc  03000380          DCW      0x0300,0x0380
0007e0  018001c0          DCW      0x0180,0x01c0
0007e4  00c000e0          DCW      0x00c0,0x00e0
0007e8  00600060          DCW      0x0060,0x0060
0007ec  00700030          DCW      0x0070,0x0030
0007f0  00300030          DCW      0x0030,0x0030
0007f4  00000000          DCW      0x0000,0x0000
0007f8  00000000          DCW      0x0000,0x0000
0007fc  00000000          DCW      0x0000,0x0000
000800  000003e0          DCW      0x0000,0x03e0
000804  07f00e38          DCW      0x07f0,0x0e38
000808  0c180c18          DCW      0x0c18,0x0c18
00080c  0c180638          DCW      0x0c18,0x0638
000810  07f007f0          DCW      0x07f0,0x07f0
000814  0c18180c          DCW      0x0c18,0x180c
000818  180c180c          DCW      0x180c,0x180c
00081c  180c0c38          DCW      0x180c,0x0c38
000820  0ff803e0          DCW      0x0ff8,0x03e0
000824  00000000          DCW      0x0000,0x0000
000828  00000000          DCW      0x0000,0x0000
00082c  00000000          DCW      0x0000,0x0000
000830  000003e0          DCW      0x0000,0x03e0
000834  07f00e38          DCW      0x07f0,0x0e38
000838  0c1c180c          DCW      0x0c1c,0x180c
00083c  180c180c          DCW      0x180c,0x180c
000840  1c1c1e38          DCW      0x1c1c,0x1e38
000844  1bf819e0          DCW      0x1bf8,0x19e0
000848  18000c00          DCW      0x1800,0x0c00
00084c  0c000e1c          DCW      0x0c00,0x0e1c
000850  07f801f0          DCW      0x07f8,0x01f0
000854  00000000          DCW      0x0000,0x0000
000858  00000000          DCW      0x0000,0x0000
00085c  00000000          DCW      0x0000,0x0000
000860  00000000          DCW      0x0000,0x0000
000864  00000000          DCW      0x0000,0x0000
000868  00000000          DCW      0x0000,0x0000
00086c  01800180          DCW      0x0180,0x0180
000870  00000000          DCW      0x0000,0x0000
000874  00000000          DCW      0x0000,0x0000
000878  00000000          DCW      0x0000,0x0000
00087c  00000000          DCW      0x0000,0x0000
000880  01800180          DCW      0x0180,0x0180
000884  00000000          DCW      0x0000,0x0000
000888  00000000          DCW      0x0000,0x0000
00088c  00000000          DCW      0x0000,0x0000
000890  00000000          DCW      0x0000,0x0000
000894  00000000          DCW      0x0000,0x0000
000898  00000000          DCW      0x0000,0x0000
00089c  01800180          DCW      0x0180,0x0180
0008a0  00000000          DCW      0x0000,0x0000
0008a4  00000000          DCW      0x0000,0x0000
0008a8  00000000          DCW      0x0000,0x0000
0008ac  00000000          DCW      0x0000,0x0000
0008b0  01800180          DCW      0x0180,0x0180
0008b4  01000100          DCW      0x0100,0x0100
0008b8  00800000          DCW      0x0080,0x0000
0008bc  00000000          DCW      0x0000,0x0000
0008c0  00000000          DCW      0x0000,0x0000
0008c4  00000000          DCW      0x0000,0x0000
0008c8  00000000          DCW      0x0000,0x0000
0008cc  00000000          DCW      0x0000,0x0000
0008d0  10001c00          DCW      0x1000,0x1c00
0008d4  0f8003e0          DCW      0x0f80,0x03e0
0008d8  00f80018          DCW      0x00f8,0x0018
0008dc  00f803e0          DCW      0x00f8,0x03e0
0008e0  0f801c00          DCW      0x0f80,0x1c00
0008e4  10000000          DCW      0x1000,0x0000
0008e8  00000000          DCW      0x0000,0x0000
0008ec  00000000          DCW      0x0000,0x0000
0008f0  00000000          DCW      0x0000,0x0000
0008f4  00000000          DCW      0x0000,0x0000
0008f8  00000000          DCW      0x0000,0x0000
0008fc  00000000          DCW      0x0000,0x0000
000900  1ff80000          DCW      0x1ff8,0x0000
000904  00000000          DCW      0x0000,0x0000
000908  1ff80000          DCW      0x1ff8,0x0000
00090c  00000000          DCW      0x0000,0x0000
000910  00000000          DCW      0x0000,0x0000
000914  00000000          DCW      0x0000,0x0000
000918  00000000          DCW      0x0000,0x0000
00091c  00000000          DCW      0x0000,0x0000
000920  00000000          DCW      0x0000,0x0000
000924  00000000          DCW      0x0000,0x0000
000928  00000000          DCW      0x0000,0x0000
00092c  00000000          DCW      0x0000,0x0000
000930  00080038          DCW      0x0008,0x0038
000934  01f007c0          DCW      0x01f0,0x07c0
000938  1f001800          DCW      0x1f00,0x1800
00093c  1f0007c0          DCW      0x1f00,0x07c0
000940  01f00038          DCW      0x01f0,0x0038
000944  00080000          DCW      0x0008,0x0000
000948  00000000          DCW      0x0000,0x0000
00094c  00000000          DCW      0x0000,0x0000
000950  000003e0          DCW      0x0000,0x03e0
000954  0ff80c18          DCW      0x0ff8,0x0c18
000958  180c180c          DCW      0x180c,0x180c
00095c  18000c00          DCW      0x1800,0x0c00
000960  06000300          DCW      0x0600,0x0300
000964  018000c0          DCW      0x0180,0x00c0
000968  00c000c0          DCW      0x00c0,0x00c0
00096c  00000000          DCW      0x0000,0x0000
000970  00c000c0          DCW      0x00c0,0x00c0
000974  00000000          DCW      0x0000,0x0000
000978  00000000          DCW      0x0000,0x0000
00097c  00000000          DCW      0x0000,0x0000
000980  00000000          DCW      0x0000,0x0000
000984  07e01818          DCW      0x07e0,0x1818
000988  200429c2          DCW      0x2004,0x29c2
00098c  4a224411          DCW      0x4a22,0x4411
000990  44094409          DCW      0x4409,0x4409
000994  44092209          DCW      0x4409,0x2209
000998  13110ce2          DCW      0x1311,0x0ce2
00099c  40022004          DCW      0x4002,0x2004
0009a0  181807e0          DCW      0x1818,0x07e0
0009a4  00000000          DCW      0x0000,0x0000
0009a8  00000000          DCW      0x0000,0x0000
0009ac  00000000          DCW      0x0000,0x0000
0009b0  00000380          DCW      0x0000,0x0380
0009b4  038006c0          DCW      0x0380,0x06c0
0009b8  06c006c0          DCW      0x06c0,0x06c0
0009bc  0c600c60          DCW      0x0c60,0x0c60
0009c0  18301830          DCW      0x1830,0x1830
0009c4  18303ff8          DCW      0x1830,0x3ff8
0009c8  3ff8701c          DCW      0x3ff8,0x701c
0009cc  600c600c          DCW      0x600c,0x600c
0009d0  c006c006          DCW      0xc006,0xc006
0009d4  00000000          DCW      0x0000,0x0000
0009d8  00000000          DCW      0x0000,0x0000
0009dc  00000000          DCW      0x0000,0x0000
0009e0  000003fc          DCW      0x0000,0x03fc
0009e4  0ffc0c0c          DCW      0x0ffc,0x0c0c
0009e8  180c180c          DCW      0x180c,0x180c
0009ec  180c0c0c          DCW      0x180c,0x0c0c
0009f0  07fc0ffc          DCW      0x07fc,0x0ffc
0009f4  180c300c          DCW      0x180c,0x300c
0009f8  300c300c          DCW      0x300c,0x300c
0009fc  300c180c          DCW      0x300c,0x180c
000a00  1ffc07fc          DCW      0x1ffc,0x07fc
000a04  00000000          DCW      0x0000,0x0000
000a08  00000000          DCW      0x0000,0x0000
000a0c  00000000          DCW      0x0000,0x0000
000a10  000007c0          DCW      0x0000,0x07c0
000a14  1ff03838          DCW      0x1ff0,0x3838
000a18  301c700c          DCW      0x301c,0x700c
000a1c  60060006          DCW      0x6006,0x0006
000a20  00060006          DCW      0x0006,0x0006
000a24  00060006          DCW      0x0006,0x0006
000a28  00066006          DCW      0x0006,0x6006
000a2c  700c301c          DCW      0x700c,0x301c
000a30  1ff007e0          DCW      0x1ff0,0x07e0
000a34  00000000          DCW      0x0000,0x0000
000a38  00000000          DCW      0x0000,0x0000
000a3c  00000000          DCW      0x0000,0x0000
000a40  000003fe          DCW      0x0000,0x03fe
000a44  0ffe0e06          DCW      0x0ffe,0x0e06
000a48  18061806          DCW      0x1806,0x1806
000a4c  30063006          DCW      0x3006,0x3006
000a50  30063006          DCW      0x3006,0x3006
000a54  30063006          DCW      0x3006,0x3006
000a58  30061806          DCW      0x3006,0x1806
000a5c  18060e06          DCW      0x1806,0x0e06
000a60  0ffe03fe          DCW      0x0ffe,0x03fe
000a64  00000000          DCW      0x0000,0x0000
000a68  00000000          DCW      0x0000,0x0000
000a6c  00000000          DCW      0x0000,0x0000
000a70  00003ffc          DCW      0x0000,0x3ffc
000a74  3ffc000c          DCW      0x3ffc,0x000c
000a78  000c000c          DCW      0x000c,0x000c
000a7c  000c000c          DCW      0x000c,0x000c
000a80  1ffc1ffc          DCW      0x1ffc,0x1ffc
000a84  000c000c          DCW      0x000c,0x000c
000a88  000c000c          DCW      0x000c,0x000c
000a8c  000c000c          DCW      0x000c,0x000c
000a90  3ffc3ffc          DCW      0x3ffc,0x3ffc
000a94  00000000          DCW      0x0000,0x0000
000a98  00000000          DCW      0x0000,0x0000
000a9c  00000000          DCW      0x0000,0x0000
000aa0  00003ff8          DCW      0x0000,0x3ff8
000aa4  3ff80018          DCW      0x3ff8,0x0018
000aa8  00180018          DCW      0x0018,0x0018
000aac  00180018          DCW      0x0018,0x0018
000ab0  1ff81ff8          DCW      0x1ff8,0x1ff8
000ab4  00180018          DCW      0x0018,0x0018
000ab8  00180018          DCW      0x0018,0x0018
000abc  00180018          DCW      0x0018,0x0018
000ac0  00180018          DCW      0x0018,0x0018
000ac4  00000000          DCW      0x0000,0x0000
000ac8  00000000          DCW      0x0000,0x0000
000acc  00000000          DCW      0x0000,0x0000
000ad0  00000fe0          DCW      0x0000,0x0fe0
000ad4  3ff8783c          DCW      0x3ff8,0x783c
000ad8  600ee006          DCW      0x600e,0xe006
000adc  c0070003          DCW      0xc007,0x0003
000ae0  0003fe03          DCW      0x0003,0xfe03
000ae4  fe03c003          DCW      0xfe03,0xc003
000ae8  c007c006          DCW      0xc007,0xc006
000aec  c00ef03c          DCW      0xc00e,0xf03c
000af0  3ff80fe0          DCW      0x3ff8,0x0fe0
000af4  00000000          DCW      0x0000,0x0000
000af8  00000000          DCW      0x0000,0x0000
000afc  00000000          DCW      0x0000,0x0000
000b00  0000300c          DCW      0x0000,0x300c
000b04  300c300c          DCW      0x300c,0x300c
000b08  300c300c          DCW      0x300c,0x300c
000b0c  300c300c          DCW      0x300c,0x300c
000b10  3ffc3ffc          DCW      0x3ffc,0x3ffc
000b14  300c300c          DCW      0x300c,0x300c
000b18  300c300c          DCW      0x300c,0x300c
000b1c  300c300c          DCW      0x300c,0x300c
000b20  300c300c          DCW      0x300c,0x300c
000b24  00000000          DCW      0x0000,0x0000
000b28  00000000          DCW      0x0000,0x0000
000b2c  00000000          DCW      0x0000,0x0000
000b30  00000180          DCW      0x0000,0x0180
000b34  01800180          DCW      0x0180,0x0180
000b38  01800180          DCW      0x0180,0x0180
000b3c  01800180          DCW      0x0180,0x0180
000b40  01800180          DCW      0x0180,0x0180
000b44  01800180          DCW      0x0180,0x0180
000b48  01800180          DCW      0x0180,0x0180
000b4c  01800180          DCW      0x0180,0x0180
000b50  01800180          DCW      0x0180,0x0180
000b54  00000000          DCW      0x0000,0x0000
000b58  00000000          DCW      0x0000,0x0000
000b5c  00000000          DCW      0x0000,0x0000
000b60  00000600          DCW      0x0000,0x0600
000b64  06000600          DCW      0x0600,0x0600
000b68  06000600          DCW      0x0600,0x0600
000b6c  06000600          DCW      0x0600,0x0600
000b70  06000600          DCW      0x0600,0x0600
000b74  06000600          DCW      0x0600,0x0600
000b78  06000618          DCW      0x0600,0x0618
000b7c  06180738          DCW      0x0618,0x0738
000b80  03f001e0          DCW      0x03f0,0x01e0
000b84  00000000          DCW      0x0000,0x0000
000b88  00000000          DCW      0x0000,0x0000
000b8c  00000000          DCW      0x0000,0x0000
000b90  00003006          DCW      0x0000,0x3006
000b94  18060c06          DCW      0x1806,0x0c06
000b98  06060306          DCW      0x0606,0x0306
000b9c  018600c6          DCW      0x0186,0x00c6
000ba0  00660076          DCW      0x0066,0x0076
000ba4  00de018e          DCW      0x00de,0x018e
000ba8  03060606          DCW      0x0306,0x0606
000bac  0c061806          DCW      0x0c06,0x1806
000bb0  30066006          DCW      0x3006,0x6006
000bb4  00000000          DCW      0x0000,0x0000
000bb8  00000000          DCW      0x0000,0x0000
000bbc  00000000          DCW      0x0000,0x0000
000bc0  00000018          DCW      0x0000,0x0018
000bc4  00180018          DCW      0x0018,0x0018
000bc8  00180018          DCW      0x0018,0x0018
000bcc  00180018          DCW      0x0018,0x0018
000bd0  00180018          DCW      0x0018,0x0018
000bd4  00180018          DCW      0x0018,0x0018
000bd8  00180018          DCW      0x0018,0x0018
000bdc  00180018          DCW      0x0018,0x0018
000be0  1ff81ff8          DCW      0x1ff8,0x1ff8
000be4  00000000          DCW      0x0000,0x0000
000be8  00000000          DCW      0x0000,0x0000
000bec  00000000          DCW      0x0000,0x0000
000bf0  0000e00e          DCW      0x0000,0xe00e
000bf4  f01ef01e          DCW      0xf01e,0xf01e
000bf8  f01ed836          DCW      0xf01e,0xd836
000bfc  d836d836          DCW      0xd836,0xd836
000c00  d836cc66          DCW      0xd836,0xcc66
000c04  cc66cc66          DCW      0xcc66,0xcc66
000c08  c6c6c6c6          DCW      0xc6c6,0xc6c6
000c0c  c6c6c6c6          DCW      0xc6c6,0xc6c6
000c10  c386c386          DCW      0xc386,0xc386
000c14  00000000          DCW      0x0000,0x0000
000c18  00000000          DCW      0x0000,0x0000
000c1c  00000000          DCW      0x0000,0x0000
000c20  0000300c          DCW      0x0000,0x300c
000c24  301c303c          DCW      0x301c,0x303c
000c28  303c306c          DCW      0x303c,0x306c
000c2c  306c30cc          DCW      0x306c,0x30cc
000c30  30cc318c          DCW      0x30cc,0x318c
000c34  330c330c          DCW      0x330c,0x330c
000c38  360c360c          DCW      0x360c,0x360c
000c3c  3c0c3c0c          DCW      0x3c0c,0x3c0c
000c40  380c300c          DCW      0x380c,0x300c
000c44  00000000          DCW      0x0000,0x0000
000c48  00000000          DCW      0x0000,0x0000
000c4c  00000000          DCW      0x0000,0x0000
000c50  000007e0          DCW      0x0000,0x07e0
000c54  1ff8381c          DCW      0x1ff8,0x381c
000c58  700e6006          DCW      0x700e,0x6006
000c5c  c003c003          DCW      0xc003,0xc003
000c60  c003c003          DCW      0xc003,0xc003
000c64  c003c003          DCW      0xc003,0xc003
000c68  c0036006          DCW      0xc003,0x6006
000c6c  700e381c          DCW      0x700e,0x381c
000c70  1ff807e0          DCW      0x1ff8,0x07e0
000c74  00000000          DCW      0x0000,0x0000
000c78  00000000          DCW      0x0000,0x0000
000c7c  00000000          DCW      0x0000,0x0000
000c80  00000ffc          DCW      0x0000,0x0ffc
000c84  1ffc380c          DCW      0x1ffc,0x380c
000c88  300c300c          DCW      0x300c,0x300c
000c8c  300c300c          DCW      0x300c,0x300c
000c90  180c1ffc          DCW      0x180c,0x1ffc
000c94  07fc000c          DCW      0x07fc,0x000c
000c98  000c000c          DCW      0x000c,0x000c
000c9c  000c000c          DCW      0x000c,0x000c
000ca0  000c000c          DCW      0x000c,0x000c
000ca4  00000000          DCW      0x0000,0x0000
000ca8  00000000          DCW      0x0000,0x0000
000cac  00000000          DCW      0x0000,0x0000
000cb0  000007e0          DCW      0x0000,0x07e0
000cb4  1ff8381c          DCW      0x1ff8,0x381c
000cb8  700e6006          DCW      0x700e,0x6006
000cbc  e003c003          DCW      0xe003,0xc003
000cc0  c003c003          DCW      0xc003,0xc003
000cc4  c003c003          DCW      0xc003,0xc003
000cc8  e0076306          DCW      0xe007,0x6306
000ccc  3f0e3c1c          DCW      0x3f0e,0x3c1c
000cd0  3ff8f7e0          DCW      0x3ff8,0xf7e0
000cd4  c0000000          DCW      0xc000,0x0000
000cd8  00000000          DCW      0x0000,0x0000
000cdc  00000000          DCW      0x0000,0x0000
000ce0  00000ffe          DCW      0x0000,0x0ffe
000ce4  1ffe3806          DCW      0x1ffe,0x3806
000ce8  30063006          DCW      0x3006,0x3006
000cec  30063806          DCW      0x3006,0x3806
000cf0  1ffe07fe          DCW      0x1ffe,0x07fe
000cf4  03060606          DCW      0x0306,0x0606
000cf8  0c061806          DCW      0x0c06,0x1806
000cfc  18063006          DCW      0x1806,0x3006
000d00  30066006          DCW      0x3006,0x6006
000d04  00000000          DCW      0x0000,0x0000
000d08  00000000          DCW      0x0000,0x0000
000d0c  00000000          DCW      0x0000,0x0000
000d10  000003e0          DCW      0x0000,0x03e0
000d14  0ff80c1c          DCW      0x0ff8,0x0c1c
000d18  180c180c          DCW      0x180c,0x180c
000d1c  000c001c          DCW      0x000c,0x001c
000d20  03f80fe0          DCW      0x03f8,0x0fe0
000d24  1e003800          DCW      0x1e00,0x3800
000d28  30063006          DCW      0x3006,0x3006
000d2c  300e1c1c          DCW      0x300e,0x1c1c
000d30  0ff807e0          DCW      0x0ff8,0x07e0
000d34  00000000          DCW      0x0000,0x0000
000d38  00000000          DCW      0x0000,0x0000
000d3c  00000000          DCW      0x0000,0x0000
000d40  00007ffe          DCW      0x0000,0x7ffe
000d44  7ffe0180          DCW      0x7ffe,0x0180
000d48  01800180          DCW      0x0180,0x0180
000d4c  01800180          DCW      0x0180,0x0180
000d50  01800180          DCW      0x0180,0x0180
000d54  01800180          DCW      0x0180,0x0180
000d58  01800180          DCW      0x0180,0x0180
000d5c  01800180          DCW      0x0180,0x0180
000d60  01800180          DCW      0x0180,0x0180
000d64  00000000          DCW      0x0000,0x0000
000d68  00000000          DCW      0x0000,0x0000
000d6c  00000000          DCW      0x0000,0x0000
000d70  0000300c          DCW      0x0000,0x300c
000d74  300c300c          DCW      0x300c,0x300c
000d78  300c300c          DCW      0x300c,0x300c
000d7c  300c300c          DCW      0x300c,0x300c
000d80  300c300c          DCW      0x300c,0x300c
000d84  300c300c          DCW      0x300c,0x300c
000d88  300c300c          DCW      0x300c,0x300c
000d8c  300c1818          DCW      0x300c,0x1818
000d90  1ff807e0          DCW      0x1ff8,0x07e0
000d94  00000000          DCW      0x0000,0x0000
000d98  00000000          DCW      0x0000,0x0000
000d9c  00000000          DCW      0x0000,0x0000
000da0  00006003          DCW      0x0000,0x6003
000da4  30063006          DCW      0x3006,0x3006
000da8  3006180c          DCW      0x3006,0x180c
000dac  180c180c          DCW      0x180c,0x180c
000db0  0c180c18          DCW      0x0c18,0x0c18
000db4  0e380630          DCW      0x0e38,0x0630
000db8  06300770          DCW      0x0630,0x0770
000dbc  03600360          DCW      0x0360,0x0360
000dc0  01c001c0          DCW      0x01c0,0x01c0
000dc4  00000000          DCW      0x0000,0x0000
000dc8  00000000          DCW      0x0000,0x0000
000dcc  00000000          DCW      0x0000,0x0000
000dd0  00006003          DCW      0x0000,0x6003
000dd4  61c361c3          DCW      0x61c3,0x61c3
000dd8  61c33366          DCW      0x61c3,0x3366
000ddc  33663366          DCW      0x3366,0x3366
000de0  33663366          DCW      0x3366,0x3366
000de4  33661b6c          DCW      0x3366,0x1b6c
000de8  1b6c1b6c          DCW      0x1b6c,0x1b6c
000dec  1a2c1e3c          DCW      0x1a2c,0x1e3c
000df0  0e380e38          DCW      0x0e38,0x0e38
000df4  00000000          DCW      0x0000,0x0000
000df8  00000000          DCW      0x0000,0x0000
000dfc  00000000          DCW      0x0000,0x0000
000e00  0000e00f          DCW      0x0000,0xe00f
000e04  700c3018          DCW      0x700c,0x3018
000e08  18300c70          DCW      0x1830,0x0c70
000e0c  0e6007c0          DCW      0x0e60,0x07c0
000e10  03800380          DCW      0x0380,0x0380
000e14  03c006e0          DCW      0x03c0,0x06e0
000e18  0c701c30          DCW      0x0c70,0x1c30
000e1c  1818300c          DCW      0x1818,0x300c
000e20  600ee007          DCW      0x600e,0xe007
000e24  00000000          DCW      0x0000,0x0000
000e28  00000000          DCW      0x0000,0x0000
000e2c  00000000          DCW      0x0000,0x0000
000e30  0000c003          DCW      0x0000,0xc003
000e34  6006300c          DCW      0x6006,0x300c
000e38  381c1838          DCW      0x381c,0x1838
000e3c  0c300660          DCW      0x0c30,0x0660
000e40  07e003c0          DCW      0x07e0,0x03c0
000e44  01800180          DCW      0x0180,0x0180
000e48  01800180          DCW      0x0180,0x0180
000e4c  01800180          DCW      0x0180,0x0180
000e50  01800180          DCW      0x0180,0x0180
000e54  00000000          DCW      0x0000,0x0000
000e58  00000000          DCW      0x0000,0x0000
000e5c  00000000          DCW      0x0000,0x0000
000e60  00007ffc          DCW      0x0000,0x7ffc
000e64  7ffc6000          DCW      0x7ffc,0x6000
000e68  30001800          DCW      0x3000,0x1800
000e6c  0c000600          DCW      0x0c00,0x0600
000e70  03000180          DCW      0x0300,0x0180
000e74  00c00060          DCW      0x00c0,0x0060
000e78  00300018          DCW      0x0030,0x0018
000e7c  000c0006          DCW      0x000c,0x0006
000e80  7ffe7ffe          DCW      0x7ffe,0x7ffe
000e84  00000000          DCW      0x0000,0x0000
000e88  00000000          DCW      0x0000,0x0000
000e8c  00000000          DCW      0x0000,0x0000
000e90  000003e0          DCW      0x0000,0x03e0
000e94  03e00060          DCW      0x03e0,0x0060
000e98  00600060          DCW      0x0060,0x0060
000e9c  00600060          DCW      0x0060,0x0060
000ea0  00600060          DCW      0x0060,0x0060
000ea4  00600060          DCW      0x0060,0x0060
000ea8  00600060          DCW      0x0060,0x0060
000eac  00600060          DCW      0x0060,0x0060
000eb0  00600060          DCW      0x0060,0x0060
000eb4  00600060          DCW      0x0060,0x0060
000eb8  006003e0          DCW      0x0060,0x03e0
000ebc  03e00000          DCW      0x03e0,0x0000
000ec0  00000030          DCW      0x0000,0x0030
000ec4  00300060          DCW      0x0030,0x0060
000ec8  00600060          DCW      0x0060,0x0060
000ecc  00c000c0          DCW      0x00c0,0x00c0
000ed0  00c001c0          DCW      0x00c0,0x01c0
000ed4  01800180          DCW      0x0180,0x0180
000ed8  01800300          DCW      0x0180,0x0300
000edc  03000300          DCW      0x0300,0x0300
000ee0  06000600          DCW      0x0600,0x0600
000ee4  00000000          DCW      0x0000,0x0000
000ee8  00000000          DCW      0x0000,0x0000
000eec  00000000          DCW      0x0000,0x0000
000ef0  000003e0          DCW      0x0000,0x03e0
000ef4  03e00300          DCW      0x03e0,0x0300
000ef8  03000300          DCW      0x0300,0x0300
000efc  03000300          DCW      0x0300,0x0300
000f00  03000300          DCW      0x0300,0x0300
000f04  03000300          DCW      0x0300,0x0300
000f08  03000300          DCW      0x0300,0x0300
000f0c  03000300          DCW      0x0300,0x0300
000f10  03000300          DCW      0x0300,0x0300
000f14  03000300          DCW      0x0300,0x0300
000f18  030003e0          DCW      0x0300,0x03e0
000f1c  03e00000          DCW      0x03e0,0x0000
000f20  00000000          DCW      0x0000,0x0000
000f24  01c001c0          DCW      0x01c0,0x01c0
000f28  03600360          DCW      0x0360,0x0360
000f2c  03600630          DCW      0x0360,0x0630
000f30  06300c18          DCW      0x0630,0x0c18
000f34  0c180000          DCW      0x0c18,0x0000
000f38  00000000          DCW      0x0000,0x0000
000f3c  00000000          DCW      0x0000,0x0000
000f40  00000000          DCW      0x0000,0x0000
000f44  00000000          DCW      0x0000,0x0000
000f48  00000000          DCW      0x0000,0x0000
000f4c  00000000          DCW      0x0000,0x0000
000f50  00000000          DCW      0x0000,0x0000
000f54  00000000          DCW      0x0000,0x0000
000f58  00000000          DCW      0x0000,0x0000
000f5c  00000000          DCW      0x0000,0x0000
000f60  00000000          DCW      0x0000,0x0000
000f64  00000000          DCW      0x0000,0x0000
000f68  00000000          DCW      0x0000,0x0000
000f6c  00000000          DCW      0x0000,0x0000
000f70  0000ffff          DCW      0x0000,0xffff
000f74  ffff0000          DCW      0xffff,0x0000
000f78  00000000          DCW      0x0000,0x0000
000f7c  00000000          DCW      0x0000,0x0000
000f80  0000000c          DCW      0x0000,0x000c
000f84  000c000c          DCW      0x000c,0x000c
000f88  000c000c          DCW      0x000c,0x000c
000f8c  000c0000          DCW      0x000c,0x0000
000f90  00000000          DCW      0x0000,0x0000
000f94  00000000          DCW      0x0000,0x0000
000f98  00000000          DCW      0x0000,0x0000
000f9c  00000000          DCW      0x0000,0x0000
000fa0  00000000          DCW      0x0000,0x0000
000fa4  00000000          DCW      0x0000,0x0000
000fa8  00000000          DCW      0x0000,0x0000
000fac  00000000          DCW      0x0000,0x0000
000fb0  00000000          DCW      0x0000,0x0000
000fb4  00000000          DCW      0x0000,0x0000
000fb8  00000000          DCW      0x0000,0x0000
000fbc  03f007f8          DCW      0x03f0,0x07f8
000fc0  0c1c0c0c          DCW      0x0c1c,0x0c0c
000fc4  0f000ff0          DCW      0x0f00,0x0ff0
000fc8  0cf80c0c          DCW      0x0cf8,0x0c0c
000fcc  0c0c0f1c          DCW      0x0c0c,0x0f1c
000fd0  0ff818f0          DCW      0x0ff8,0x18f0
000fd4  00000000          DCW      0x0000,0x0000
000fd8  00000000          DCW      0x0000,0x0000
000fdc  00000000          DCW      0x0000,0x0000
000fe0  00000018          DCW      0x0000,0x0018
000fe4  00180018          DCW      0x0018,0x0018
000fe8  00180018          DCW      0x0018,0x0018
000fec  03d80ff8          DCW      0x03d8,0x0ff8
000ff0  0c381818          DCW      0x0c38,0x1818
000ff4  18181818          DCW      0x1818,0x1818
000ff8  18181818          DCW      0x1818,0x1818
000ffc  18180c38          DCW      0x1818,0x0c38
001000  0ff803d8          DCW      0x0ff8,0x03d8
001004  00000000          DCW      0x0000,0x0000
001008  00000000          DCW      0x0000,0x0000
00100c  00000000          DCW      0x0000,0x0000
001010  00000000          DCW      0x0000,0x0000
001014  00000000          DCW      0x0000,0x0000
001018  00000000          DCW      0x0000,0x0000
00101c  03c007f0          DCW      0x03c0,0x07f0
001020  0e300c18          DCW      0x0e30,0x0c18
001024  00180018          DCW      0x0018,0x0018
001028  00180018          DCW      0x0018,0x0018
00102c  0c180e30          DCW      0x0c18,0x0e30
001030  07f003c0          DCW      0x07f0,0x03c0
001034  00000000          DCW      0x0000,0x0000
001038  00000000          DCW      0x0000,0x0000
00103c  00000000          DCW      0x0000,0x0000
001040  00001800          DCW      0x0000,0x1800
001044  18001800          DCW      0x1800,0x1800
001048  18001800          DCW      0x1800,0x1800
00104c  1bc01ff0          DCW      0x1bc0,0x1ff0
001050  1c301818          DCW      0x1c30,0x1818
001054  18181818          DCW      0x1818,0x1818
001058  18181818          DCW      0x1818,0x1818
00105c  18181c30          DCW      0x1818,0x1c30
001060  1ff01bc0          DCW      0x1ff0,0x1bc0
001064  00000000          DCW      0x0000,0x0000
001068  00000000          DCW      0x0000,0x0000
00106c  00000000          DCW      0x0000,0x0000
001070  00000000          DCW      0x0000,0x0000
001074  00000000          DCW      0x0000,0x0000
001078  00000000          DCW      0x0000,0x0000
00107c  03c00ff0          DCW      0x03c0,0x0ff0
001080  0c301818          DCW      0x0c30,0x1818
001084  1ff81ff8          DCW      0x1ff8,0x1ff8
001088  00180018          DCW      0x0018,0x0018
00108c  18381c30          DCW      0x1838,0x1c30
001090  0ff007c0          DCW      0x0ff0,0x07c0
001094  00000000          DCW      0x0000,0x0000
001098  00000000          DCW      0x0000,0x0000
00109c  00000000          DCW      0x0000,0x0000
0010a0  00000f80          DCW      0x0000,0x0f80
0010a4  0fc000c0          DCW      0x0fc0,0x00c0
0010a8  00c000c0          DCW      0x00c0,0x00c0
0010ac  07f007f0          DCW      0x07f0,0x07f0
0010b0  00c000c0          DCW      0x00c0,0x00c0
0010b4  00c000c0          DCW      0x00c0,0x00c0
0010b8  00c000c0          DCW      0x00c0,0x00c0
0010bc  00c000c0          DCW      0x00c0,0x00c0
0010c0  00c000c0          DCW      0x00c0,0x00c0
0010c4  00000000          DCW      0x0000,0x0000
0010c8  00000000          DCW      0x0000,0x0000
0010cc  00000000          DCW      0x0000,0x0000
0010d0  00000000          DCW      0x0000,0x0000
0010d4  00000000          DCW      0x0000,0x0000
0010d8  00000000          DCW      0x0000,0x0000
0010dc  0de00ff8          DCW      0x0de0,0x0ff8
0010e0  0e180c0c          DCW      0x0e18,0x0c0c
0010e4  0c0c0c0c          DCW      0x0c0c,0x0c0c
0010e8  0c0c0c0c          DCW      0x0c0c,0x0c0c
0010ec  0c0c0e18          DCW      0x0c0c,0x0e18
0010f0  0ff80de0          DCW      0x0ff8,0x0de0
0010f4  0c000c0c          DCW      0x0c00,0x0c0c
0010f8  061c07f8          DCW      0x061c,0x07f8
0010fc  01f00000          DCW      0x01f0,0x0000
001100  00000018          DCW      0x0000,0x0018
001104  00180018          DCW      0x0018,0x0018
001108  00180018          DCW      0x0018,0x0018
00110c  07d80ff8          DCW      0x07d8,0x0ff8
001110  1c381818          DCW      0x1c38,0x1818
001114  18181818          DCW      0x1818,0x1818
001118  18181818          DCW      0x1818,0x1818
00111c  18181818          DCW      0x1818,0x1818
001120  18181818          DCW      0x1818,0x1818
001124  00000000          DCW      0x0000,0x0000
001128  00000000          DCW      0x0000,0x0000
00112c  00000000          DCW      0x0000,0x0000
001130  000000c0          DCW      0x0000,0x00c0
001134  00c00000          DCW      0x00c0,0x0000
001138  00000000          DCW      0x0000,0x0000
00113c  00c000c0          DCW      0x00c0,0x00c0
001140  00c000c0          DCW      0x00c0,0x00c0
001144  00c000c0          DCW      0x00c0,0x00c0
001148  00c000c0          DCW      0x00c0,0x00c0
00114c  00c000c0          DCW      0x00c0,0x00c0
001150  00c000c0          DCW      0x00c0,0x00c0
001154  00000000          DCW      0x0000,0x0000
001158  00000000          DCW      0x0000,0x0000
00115c  00000000          DCW      0x0000,0x0000
001160  000000c0          DCW      0x0000,0x00c0
001164  00c00000          DCW      0x00c0,0x0000
001168  00000000          DCW      0x0000,0x0000
00116c  00c000c0          DCW      0x00c0,0x00c0
001170  00c000c0          DCW      0x00c0,0x00c0
001174  00c000c0          DCW      0x00c0,0x00c0
001178  00c000c0          DCW      0x00c0,0x00c0
00117c  00c000c0          DCW      0x00c0,0x00c0
001180  00c000c0          DCW      0x00c0,0x00c0
001184  00c000c0          DCW      0x00c0,0x00c0
001188  00c000f8          DCW      0x00c0,0x00f8
00118c  00780000          DCW      0x0078,0x0000
001190  0000000c          DCW      0x0000,0x000c
001194  000c000c          DCW      0x000c,0x000c
001198  000c000c          DCW      0x000c,0x000c
00119c  0c0c060c          DCW      0x0c0c,0x060c
0011a0  030c018c          DCW      0x030c,0x018c
0011a4  00cc006c          DCW      0x00cc,0x006c
0011a8  00fc019c          DCW      0x00fc,0x019c
0011ac  038c030c          DCW      0x038c,0x030c
0011b0  060c0c0c          DCW      0x060c,0x0c0c
0011b4  00000000          DCW      0x0000,0x0000
0011b8  00000000          DCW      0x0000,0x0000
0011bc  00000000          DCW      0x0000,0x0000
0011c0  000000c0          DCW      0x0000,0x00c0
0011c4  00c000c0          DCW      0x00c0,0x00c0
0011c8  00c000c0          DCW      0x00c0,0x00c0
0011cc  00c000c0          DCW      0x00c0,0x00c0
0011d0  00c000c0          DCW      0x00c0,0x00c0
0011d4  00c000c0          DCW      0x00c0,0x00c0
0011d8  00c000c0          DCW      0x00c0,0x00c0
0011dc  00c000c0          DCW      0x00c0,0x00c0
0011e0  00c000c0          DCW      0x00c0,0x00c0
0011e4  00000000          DCW      0x0000,0x0000
0011e8  00000000          DCW      0x0000,0x0000
0011ec  00000000          DCW      0x0000,0x0000
0011f0  00000000          DCW      0x0000,0x0000
0011f4  00000000          DCW      0x0000,0x0000
0011f8  00000000          DCW      0x0000,0x0000
0011fc  3c7c7eff          DCW      0x3c7c,0x7eff
001200  e3c7c183          DCW      0xe3c7,0xc183
001204  c183c183          DCW      0xc183,0xc183
001208  c183c183          DCW      0xc183,0xc183
00120c  c183c183          DCW      0xc183,0xc183
001210  c183c183          DCW      0xc183,0xc183
001214  00000000          DCW      0x0000,0x0000
001218  00000000          DCW      0x0000,0x0000
00121c  00000000          DCW      0x0000,0x0000
001220  00000000          DCW      0x0000,0x0000
001224  00000000          DCW      0x0000,0x0000
001228  00000000          DCW      0x0000,0x0000
00122c  07980ff8          DCW      0x0798,0x0ff8
001230  1c381818          DCW      0x1c38,0x1818
001234  18181818          DCW      0x1818,0x1818
001238  18181818          DCW      0x1818,0x1818
00123c  18181818          DCW      0x1818,0x1818
001240  18181818          DCW      0x1818,0x1818
001244  00000000          DCW      0x0000,0x0000
001248  00000000          DCW      0x0000,0x0000
00124c  00000000          DCW      0x0000,0x0000
001250  00000000          DCW      0x0000,0x0000
001254  00000000          DCW      0x0000,0x0000
001258  00000000          DCW      0x0000,0x0000
00125c  03c00ff0          DCW      0x03c0,0x0ff0
001260  0c301818          DCW      0x0c30,0x1818
001264  18181818          DCW      0x1818,0x1818
001268  18181818          DCW      0x1818,0x1818
00126c  18180c30          DCW      0x1818,0x0c30
001270  0ff003c0          DCW      0x0ff0,0x03c0
001274  00000000          DCW      0x0000,0x0000
001278  00000000          DCW      0x0000,0x0000
00127c  00000000          DCW      0x0000,0x0000
001280  00000000          DCW      0x0000,0x0000
001284  00000000          DCW      0x0000,0x0000
001288  00000000          DCW      0x0000,0x0000
00128c  03d80ff8          DCW      0x03d8,0x0ff8
001290  0c381818          DCW      0x0c38,0x1818
001294  18181818          DCW      0x1818,0x1818
001298  18181818          DCW      0x1818,0x1818
00129c  18180c38          DCW      0x1818,0x0c38
0012a0  0ff803d8          DCW      0x0ff8,0x03d8
0012a4  00180018          DCW      0x0018,0x0018
0012a8  00180018          DCW      0x0018,0x0018
0012ac  00180000          DCW      0x0018,0x0000
0012b0  00000000          DCW      0x0000,0x0000
0012b4  00000000          DCW      0x0000,0x0000
0012b8  00000000          DCW      0x0000,0x0000
0012bc  1bc01ff0          DCW      0x1bc0,0x1ff0
0012c0  1c301818          DCW      0x1c30,0x1818
0012c4  18181818          DCW      0x1818,0x1818
0012c8  18181818          DCW      0x1818,0x1818
0012cc  18181c30          DCW      0x1818,0x1c30
0012d0  1ff01bc0          DCW      0x1ff0,0x1bc0
0012d4  18001800          DCW      0x1800,0x1800
0012d8  18001800          DCW      0x1800,0x1800
0012dc  18000000          DCW      0x1800,0x0000
0012e0  00000000          DCW      0x0000,0x0000
0012e4  00000000          DCW      0x0000,0x0000
0012e8  00000000          DCW      0x0000,0x0000
0012ec  07b003f0          DCW      0x07b0,0x03f0
0012f0  00700030          DCW      0x0070,0x0030
0012f4  00300030          DCW      0x0030,0x0030
0012f8  00300030          DCW      0x0030,0x0030
0012fc  00300030          DCW      0x0030,0x0030
001300  00300030          DCW      0x0030,0x0030
001304  00000000          DCW      0x0000,0x0000
001308  00000000          DCW      0x0000,0x0000
00130c  00000000          DCW      0x0000,0x0000
001310  00000000          DCW      0x0000,0x0000
001314  00000000          DCW      0x0000,0x0000
001318  00000000          DCW      0x0000,0x0000
00131c  03e003f0          DCW      0x03e0,0x03f0
001320  0e380c18          DCW      0x0e38,0x0c18
001324  003803f0          DCW      0x0038,0x03f0
001328  07c00c00          DCW      0x07c0,0x0c00
00132c  0c180e38          DCW      0x0c18,0x0e38
001330  07f003e0          DCW      0x07f0,0x03e0
001334  00000000          DCW      0x0000,0x0000
001338  00000000          DCW      0x0000,0x0000
00133c  00000000          DCW      0x0000,0x0000
001340  00000000          DCW      0x0000,0x0000
001344  008000c0          DCW      0x0080,0x00c0
001348  00c000c0          DCW      0x00c0,0x00c0
00134c  07f007f0          DCW      0x07f0,0x07f0
001350  00c000c0          DCW      0x00c0,0x00c0
001354  00c000c0          DCW      0x00c0,0x00c0
001358  00c000c0          DCW      0x00c0,0x00c0
00135c  00c000c0          DCW      0x00c0,0x00c0
001360  07c00780          DCW      0x07c0,0x0780
001364  00000000          DCW      0x0000,0x0000
001368  00000000          DCW      0x0000,0x0000
00136c  00000000          DCW      0x0000,0x0000
001370  00000000          DCW      0x0000,0x0000
001374  00000000          DCW      0x0000,0x0000
001378  00000000          DCW      0x0000,0x0000
00137c  18181818          DCW      0x1818,0x1818
001380  18181818          DCW      0x1818,0x1818
001384  18181818          DCW      0x1818,0x1818
001388  18181818          DCW      0x1818,0x1818
00138c  18181c38          DCW      0x1818,0x1c38
001390  1ff019e0          DCW      0x1ff0,0x19e0
001394  00000000          DCW      0x0000,0x0000
001398  00000000          DCW      0x0000,0x0000
00139c  00000000          DCW      0x0000,0x0000
0013a0  00000000          DCW      0x0000,0x0000
0013a4  00000000          DCW      0x0000,0x0000
0013a8  00000000          DCW      0x0000,0x0000
0013ac  180c0c18          DCW      0x180c,0x0c18
0013b0  0c180c18          DCW      0x0c18,0x0c18
0013b4  06300630          DCW      0x0630,0x0630
0013b8  06300360          DCW      0x0630,0x0360
0013bc  03600360          DCW      0x0360,0x0360
0013c0  01c001c0          DCW      0x01c0,0x01c0
0013c4  00000000          DCW      0x0000,0x0000
0013c8  00000000          DCW      0x0000,0x0000
0013cc  00000000          DCW      0x0000,0x0000
0013d0  00000000          DCW      0x0000,0x0000
0013d4  00000000          DCW      0x0000,0x0000
0013d8  00000000          DCW      0x0000,0x0000
0013dc  41c141c1          DCW      0x41c1,0x41c1
0013e0  61c36363          DCW      0x61c3,0x6363
0013e4  63636363          DCW      0x6363,0x6363
0013e8  36363636          DCW      0x3636,0x3636
0013ec  36361c1c          DCW      0x3636,0x1c1c
0013f0  1c1c1c1c          DCW      0x1c1c,0x1c1c
0013f4  00000000          DCW      0x0000,0x0000
0013f8  00000000          DCW      0x0000,0x0000
0013fc  00000000          DCW      0x0000,0x0000
001400  00000000          DCW      0x0000,0x0000
001404  00000000          DCW      0x0000,0x0000
001408  00000000          DCW      0x0000,0x0000
00140c  381c1c38          DCW      0x381c,0x1c38
001410  0c300660          DCW      0x0c30,0x0660
001414  03c003c0          DCW      0x03c0,0x03c0
001418  03c003c0          DCW      0x03c0,0x03c0
00141c  06600c30          DCW      0x0660,0x0c30
001420  1c38381c          DCW      0x1c38,0x381c
001424  00000000          DCW      0x0000,0x0000
001428  00000000          DCW      0x0000,0x0000
00142c  00000000          DCW      0x0000,0x0000
001430  00000000          DCW      0x0000,0x0000
001434  00000000          DCW      0x0000,0x0000
001438  00000000          DCW      0x0000,0x0000
00143c  30181830          DCW      0x3018,0x1830
001440  18301870          DCW      0x1830,0x1870
001444  0c600c60          DCW      0x0c60,0x0c60
001448  0ce006c0          DCW      0x0ce0,0x06c0
00144c  06c00380          DCW      0x06c0,0x0380
001450  03800380          DCW      0x0380,0x0380
001454  01800180          DCW      0x0180,0x0180
001458  01c000f0          DCW      0x01c0,0x00f0
00145c  00700000          DCW      0x0070,0x0000
001460  00000000          DCW      0x0000,0x0000
001464  00000000          DCW      0x0000,0x0000
001468  00000000          DCW      0x0000,0x0000
00146c  1ffc1ffc          DCW      0x1ffc,0x1ffc
001470  0c000600          DCW      0x0c00,0x0600
001474  03000180          DCW      0x0300,0x0180
001478  00c00060          DCW      0x00c0,0x0060
00147c  00300018          DCW      0x0030,0x0018
001480  1ffc1ffc          DCW      0x1ffc,0x1ffc
001484  00000000          DCW      0x0000,0x0000
001488  00000000          DCW      0x0000,0x0000
00148c  00000000          DCW      0x0000,0x0000
001490  00000300          DCW      0x0000,0x0300
001494  018000c0          DCW      0x0180,0x00c0
001498  00c000c0          DCW      0x00c0,0x00c0
00149c  00c000c0          DCW      0x00c0,0x00c0
0014a0  00c00060          DCW      0x00c0,0x0060
0014a4  00600030          DCW      0x0060,0x0030
0014a8  00600040          DCW      0x0060,0x0040
0014ac  00c000c0          DCW      0x00c0,0x00c0
0014b0  00c000c0          DCW      0x00c0,0x00c0
0014b4  00c000c0          DCW      0x00c0,0x00c0
0014b8  01800300          DCW      0x0180,0x0300
0014bc  00000000          DCW      0x0000,0x0000
0014c0  00000180          DCW      0x0000,0x0180
0014c4  01800180          DCW      0x0180,0x0180
0014c8  01800180          DCW      0x0180,0x0180
0014cc  01800180          DCW      0x0180,0x0180
0014d0  01800180          DCW      0x0180,0x0180
0014d4  01800180          DCW      0x0180,0x0180
0014d8  01800180          DCW      0x0180,0x0180
0014dc  01800180          DCW      0x0180,0x0180
0014e0  01800180          DCW      0x0180,0x0180
0014e4  01800180          DCW      0x0180,0x0180
0014e8  01800180          DCW      0x0180,0x0180
0014ec  01800000          DCW      0x0180,0x0000
0014f0  00000060          DCW      0x0000,0x0060
0014f4  00c001c0          DCW      0x00c0,0x01c0
0014f8  01800180          DCW      0x0180,0x0180
0014fc  01800180          DCW      0x0180,0x0180
001500  01800300          DCW      0x0180,0x0300
001504  03000600          DCW      0x0300,0x0600
001508  03000100          DCW      0x0300,0x0100
00150c  01800180          DCW      0x0180,0x0180
001510  01800180          DCW      0x0180,0x0180
001514  01800180          DCW      0x0180,0x0180
001518  00c00060          DCW      0x00c0,0x0060
00151c  00000000          DCW      0x0000,0x0000
001520  00000000          DCW      0x0000,0x0000
001524  00000000          DCW      0x0000,0x0000
001528  00000000          DCW      0x0000,0x0000
00152c  00000000          DCW      0x0000,0x0000
001530  10f01ff8          DCW      0x10f0,0x1ff8
001534  0f080000          DCW      0x0f08,0x0000
001538  00000000          DCW      0x0000,0x0000
00153c  00000000          DCW      0x0000,0x0000
001540  00000000          DCW      0x0000,0x0000
001544  00000000          DCW      0x0000,0x0000
001548  00000000          DCW      0x0000,0x0000
00154c  00000000          DCW      0x0000,0x0000
001550  00000000          DCW      0x0000,0x0000
001554  00000000          DCW      0x0000,0x0000
001558  00000000          DCW      0x0000,0x0000
00155c  00000000          DCW      0x0000,0x0000
001560  00000000          DCW      0x0000,0x0000
001564  00000000          DCW      0x0000,0x0000
001568  00000000          DCW      0x0000,0x0000
00156c  00000000          DCW      0x0000,0x0000
001570  00000000          DCW      0x0000,0x0000
001574  00000000          DCW      0x0000,0x0000
001578  00000000          DCW      0x0000,0x0000
00157c  00000000          DCW      0x0000,0x0000
001580  00000000          DCW      0x0000,0x0000
001584  00000000          DCW      0x0000,0x0000
001588  000003c0          DCW      0x0000,0x03c0
00158c  0c301008          DCW      0x0c30,0x1008
001590  20042004          DCW      0x2004,0x2004
001594  40024002          DCW      0x4002,0x4002
001598  40024002          DCW      0x4002,0x4002
00159c  40022004          DCW      0x4002,0x2004
0015a0  20041008          DCW      0x2004,0x1008
0015a4  0c3003c0          DCW      0x0c30,0x03c0
0015a8  00000000          DCW      0x0000,0x0000
0015ac  00000000          DCW      0x0000,0x0000
0015b0  00000000          DCW      0x0000,0x0000
0015b4  00000000          DCW      0x0000,0x0000
0015b8  000003c0          DCW      0x0000,0x03c0
0015bc  0ff01ff8          DCW      0x0ff0,0x1ff8
0015c0  3ffc3ffc          DCW      0x3ffc,0x3ffc
0015c4  7ffe7ffe          DCW      0x7ffe,0x7ffe
0015c8  7ffe7ffe          DCW      0x7ffe,0x7ffe
0015cc  7ffe3ffc          DCW      0x7ffe,0x3ffc
0015d0  3ffc1ff8          DCW      0x3ffc,0x1ff8
0015d4  0ff003c0          DCW      0x0ff0,0x03c0
0015d8  00000000          DCW      0x0000,0x0000
0015dc  00000000          DCW      0x0000,0x0000
0015e0  00000000          DCW      0x0000,0x0000
0015e4  00000000          DCW      0x0000,0x0000
0015e8  00000000          DCW      0x0000,0x0000
0015ec  000007e0          DCW      0x0000,0x07e0
0015f0  0ff01818          DCW      0x0ff0,0x1818
0015f4  18181818          DCW      0x1818,0x1818
0015f8  18181818          DCW      0x1818,0x1818
0015fc  18180ff0          DCW      0x1818,0x0ff0
001600  07e00000          DCW      0x07e0,0x0000
001604  00000000          DCW      0x0000,0x0000
001608  00000000          DCW      0x0000,0x0000
00160c  00000000          DCW      0x0000,0x0000
001610  00000000          DCW      0x0000,0x0000
001614  00000000          DCW      0x0000,0x0000
001618  00000000          DCW      0x0000,0x0000
00161c  000007e0          DCW      0x0000,0x07e0
001620  0ff01ff8          DCW      0x0ff0,0x1ff8
001624  1ff81ff8          DCW      0x1ff8,0x1ff8
001628  1ff81ff8          DCW      0x1ff8,0x1ff8
00162c  1ff80ff0          DCW      0x1ff8,0x0ff0
001630  07e00000          DCW      0x07e0,0x0000
001634  00000000          DCW      0x0000,0x0000
001638  00000000          DCW      0x0000,0x0000
00163c  00000000          DCW      0x0000,0x0000
001640  00000000          DCW      0x0000,0x0000
001644  00000000          DCW      0x0000,0x0000
001648  00000000          DCW      0x0000,0x0000
00164c  00000000          DCW      0x0000,0x0000
001650  00000000          DCW      0x0000,0x0000
001654  00000000          DCW      0x0000,0x0000
001658  018003c0          DCW      0x0180,0x03c0
00165c  06600c30          DCW      0x0660,0x0c30
001660  18181818          DCW      0x1818,0x1818
001664  1ff81ff8          DCW      0x1ff8,0x1ff8
001668  00000000          DCW      0x0000,0x0000
00166c  00000000          DCW      0x0000,0x0000
001670  00000000          DCW      0x0000,0x0000
001674  00000000          DCW      0x0000,0x0000
001678  00000000          DCW      0x0000,0x0000
00167c  00000000          DCW      0x0000,0x0000
001680  00000000          DCW      0x0000,0x0000
001684  00000000          DCW      0x0000,0x0000
001688  018003c0          DCW      0x0180,0x03c0
00168c  07e00ff0          DCW      0x07e0,0x0ff0
001690  1ff81ff8          DCW      0x1ff8,0x1ff8
001694  1ff81ff8          DCW      0x1ff8,0x1ff8
001698  00000000          DCW      0x0000,0x0000
00169c  00000000          DCW      0x0000,0x0000
0016a0  00000000          DCW      0x0000,0x0000
0016a4  00000000          DCW      0x0000,0x0000
0016a8  1ff81ff8          DCW      0x1ff8,0x1ff8
0016ac  18181818          DCW      0x1818,0x1818
0016b0  0c300660          DCW      0x0c30,0x0660
0016b4  03c00180          DCW      0x03c0,0x0180
0016b8  00000000          DCW      0x0000,0x0000
0016bc  00000000          DCW      0x0000,0x0000
0016c0  00000000          DCW      0x0000,0x0000
0016c4  00000000          DCW      0x0000,0x0000
0016c8  00000000          DCW      0x0000,0x0000
0016cc  00000000          DCW      0x0000,0x0000
0016d0  00000000          DCW      0x0000,0x0000
0016d4  00000000          DCW      0x0000,0x0000
0016d8  1ff81ff8          DCW      0x1ff8,0x1ff8
0016dc  1ff81ff8          DCW      0x1ff8,0x1ff8
0016e0  0ff007e0          DCW      0x0ff0,0x07e0
0016e4  03c00180          DCW      0x03c0,0x0180
0016e8  00000000          DCW      0x0000,0x0000
0016ec  00000000          DCW      0x0000,0x0000
0016f0  00000000          DCW      0x0000,0x0000
0016f4  00000000          DCW      0x0000,0x0000
0016f8  00000000          DCW      0x0000,0x0000
0016fc  00000000          DCW      0x0000,0x0000
001700  00000000          DCW      0x0000,0x0000
001704  00000000          DCW      0x0000,0x0000
001708  00000000          DCW      0x0000,0x0000
00170c  000001e0          DCW      0x0000,0x01e0
001710  01f00198          DCW      0x01f0,0x0198
001714  018c0186          DCW      0x018c,0x0186
001718  0186018c          DCW      0x0186,0x018c
00171c  019801f0          DCW      0x0198,0x01f0
001720  01e00000          DCW      0x01e0,0x0000
001724  00000000          DCW      0x0000,0x0000
001728  00000000          DCW      0x0000,0x0000
00172c  00000000          DCW      0x0000,0x0000
001730  00000000          DCW      0x0000,0x0000
001734  00000000          DCW      0x0000,0x0000
001738  00000000          DCW      0x0000,0x0000
00173c  000001e0          DCW      0x0000,0x01e0
001740  01f001f8          DCW      0x01f0,0x01f8
001744  01fc01fe          DCW      0x01fc,0x01fe
001748  01fe01fc          DCW      0x01fe,0x01fc
00174c  01f801f0          DCW      0x01f8,0x01f0
001750  01e00000          DCW      0x01e0,0x0000
001754  00000000          DCW      0x0000,0x0000
001758  00000000          DCW      0x0000,0x0000
00175c  00000000          DCW      0x0000,0x0000
001760  00000000          DCW      0x0000,0x0000
001764  00000000          DCW      0x0000,0x0000
001768  00000000          DCW      0x0000,0x0000
00176c  00000780          DCW      0x0000,0x0780
001770  0f801980          DCW      0x0f80,0x1980
001774  31806180          DCW      0x3180,0x6180
001778  61803180          DCW      0x6180,0x3180
00177c  19800f80          DCW      0x1980,0x0f80
001780  07800000          DCW      0x0780,0x0000
001784  00000000          DCW      0x0000,0x0000
001788  00000000          DCW      0x0000,0x0000
00178c  00000000          DCW      0x0000,0x0000
001790  00000000          DCW      0x0000,0x0000
001794  00000000          DCW      0x0000,0x0000
001798  00000000          DCW      0x0000,0x0000
00179c  00000780          DCW      0x0000,0x0780
0017a0  0f801f80          DCW      0x0f80,0x1f80
0017a4  3f807f80          DCW      0x3f80,0x7f80
0017a8  7f803f80          DCW      0x7f80,0x3f80
0017ac  1f800f80          DCW      0x1f80,0x0f80
0017b0  07800000          DCW      0x0780,0x0000
0017b4  00000000          DCW      0x0000,0x0000
0017b8  00000000          DCW      0x0000,0x0000
0017bc  00000000          DCW      0x0000,0x0000
0017c0  000001c0          DCW      0x0000,0x01c0
0017c4  02200220          DCW      0x0220,0x0220
0017c8  01400630          DCW      0x0140,0x0630
0017cc  08080808          DCW      0x0808,0x0808
0017d0  08080808          DCW      0x0808,0x0808
0017d4  08080808          DCW      0x0808,0x0808
0017d8  08080220          DCW      0x0808,0x0220
0017dc  02200220          DCW      0x0220,0x0220
0017e0  02200220          DCW      0x0220,0x0220
0017e4  02200220          DCW      0x0220,0x0220
0017e8  02200220          DCW      0x0220,0x0220
0017ec  02200000          DCW      0x0220,0x0000
0017f0  000001c0          DCW      0x0000,0x01c0
0017f4  03e003e0          DCW      0x03e0,0x03e0
0017f8  01c007f0          DCW      0x01c0,0x07f0
0017fc  0dd80dd8          DCW      0x0dd8,0x0dd8
001800  0dd80dd8          DCW      0x0dd8,0x0dd8
001804  0dd80dd8          DCW      0x0dd8,0x0dd8
001808  0dd80360          DCW      0x0dd8,0x0360
00180c  03600360          DCW      0x0360,0x0360
001810  03600360          DCW      0x0360,0x0360
001814  03600360          DCW      0x0360,0x0360
001818  03600360          DCW      0x0360,0x0360
00181c  03600000          DCW      0x0360,0x0000
001820  000001c0          DCW      0x0000,0x01c0
001824  02200220          DCW      0x0220,0x0220
001828  01400630          DCW      0x0140,0x0630
00182c  08080808          DCW      0x0808,0x0808
001830  08081004          DCW      0x0808,0x1004
001834  20022002          DCW      0x2002,0x2002
001838  01400220          DCW      0x0140,0x0220
00183c  02200410          DCW      0x0220,0x0410
001840  08080808          DCW      0x0808,0x0808
001844  10041004          DCW      0x1004,0x1004
001848  20044004          DCW      0x2004,0x4004
00184c  00000000          DCW      0x0000,0x0000
001850  000001c0          DCW      0x0000,0x01c0
001854  03e003e0          DCW      0x03e0,0x03e0
001858  01c007f0          DCW      0x01c0,0x07f0
00185c  0dd80dd8          DCW      0x0dd8,0x0dd8
001860  0dd819cc          DCW      0x0dd8,0x19cc
001864  31c661c2          DCW      0x31c6,0x61c2
001868  01c00360          DCW      0x01c0,0x0360
00186c  03600670          DCW      0x0360,0x0670
001870  0c380c18          DCW      0x0c38,0x0c18
001874  180c180c          DCW      0x180c,0x180c
001878  300c600c          DCW      0x300c,0x600c
00187c  00000000          DCW      0x0000,0x0000

                          AREA ||.data||, DATA, ALIGN=1

                  Color
000000  ffff0000          DCW      0xffff,0x0000
                  Himax
000004  00                DCB      0x00

;*** Start embedded assembler ***

#line 1 "GLCD_SPI_LPC1700.c"
	AREA ||.rev16_text||, CODE
	THUMB
	EXPORT |__asm___18_GLCD_SPI_LPC1700_c_07b274fb____REV16|
#line 481 "C:\\Users\\ECBME\\AppData\\Local\\Arm\\Packs\\ARM\\CMSIS\\5.7.0\\CMSIS\\Core\\Include\\cmsis_armcc.h"
|__asm___18_GLCD_SPI_LPC1700_c_07b274fb____REV16| PROC
#line 482

 rev16 r0, r0
 bx lr
	ENDP
	AREA ||.revsh_text||, CODE
	THUMB
	EXPORT |__asm___18_GLCD_SPI_LPC1700_c_07b274fb____REVSH|
#line 496
|__asm___18_GLCD_SPI_LPC1700_c_07b274fb____REVSH| PROC
#line 497

 revsh r0, r0
 bx lr
	ENDP
	AREA ||.rrx_text||, CODE
	THUMB
	EXPORT |__asm___18_GLCD_SPI_LPC1700_c_07b274fb____RRX|
#line 683
|__asm___18_GLCD_SPI_LPC1700_c_07b274fb____RRX| PROC
#line 684

 rrx r0, r0
 bx lr
	ENDP

;*** End   embedded assembler ***
